MODULE Linux x86_64 1E0F07977E5A51D2003C260A792DB6540 qt-app-template
INFO CODE_ID 97070F1E5A7ED251003C260A792DB6541E461E37
FUNC 1263a 21 0 MainWindow::qt_static_metacall(QObject*, QMetaObject::Call, int, void**)
FUNC 1265c 4c 0 MainWindow::metaObject() const
FUNC 126a8 58 0 MainWindow::qt_metacast(char const*)
FUNC 12700 38 0 MainWindow::qt_metacall(QMetaObject::Call, int, void**)
FUNC 12738 16 0 operator new(unsigned long, void*)
FUNC 1274e 13 0 operator delete(void*, void*)
FUNC 12762 77 0 QtPrivate::QMetaTypeForType<MainWindow>::getDefaultCtr()::{lambda(QtPrivate::QMetaTypeInterface const*, void*)#1}::operator()(QtPrivate::QMetaTypeInterface const*, void*) const
FUNC 127d9 2b 0 QtPrivate::QMetaTypeForType<MainWindow>::getDefaultCtr()::{lambda(QtPrivate::QMetaTypeInterface const*, void*)#1}::_FUN(QtPrivate::QMetaTypeInterface const*, void*)
FUNC 12804 32 0 QtPrivate::QMetaTypeForType<MainWindow>::getDtor()::{lambda(QtPrivate::QMetaTypeInterface const*, void*)#1}::operator()(QtPrivate::QMetaTypeInterface const*, void*) const
FUNC 12836 2b 0 QtPrivate::QMetaTypeForType<MainWindow>::getDtor()::{lambda(QtPrivate::QMetaTypeInterface const*, void*)#1}::_FUN(QtPrivate::QMetaTypeInterface const*, void*)
FUNC 12862 15 0 QScopedPointer<QObjectData, QScopedPointerDeleter<QObjectData> >::operator->() const
FUNC 12877 15 0 QtPrivate::MetaObjectForType<MainWindow, void>::metaObjectFunction(QtPrivate::QMetaTypeInterface const*)
FUNC 1288c 399 0 listResources(QString const&)
FUNC 12c25 337 0 benchmark(std::__cxx11::basic_string<char, std::char_traits<char>, std::allocator<char> > const&, int)
FUNC 12f5c 4ca 0 setup_crashpad()
FUNC 13426 1d 0 crash_now()
FUNC 13443 924 0 main
FUNC 13d67 3a 0 QtPrivate::lengthHelperPointer<char>
FUNC 13da1 83 0 __static_initialization_and_destruction_0
FUNC 13e24 f 0 _GLOBAL__sub_I_main.cpp
FUNC 13e33 f 0 std::__is_constant_evaluated()
FUNC 13e42 11 0 std::numeric_limits<unsigned long>::max()
FUNC 13e54 56 0 QMessageLogContext::QMessageLogContext(char const*, int, char const*, char const*)
FUNC 13eaa 3c 0 QMessageLogger::QMessageLogger(char const*, int, char const*)
FUNC 13ee6 21 0 std::exception::exception()
FUNC 13f08 31 0 std::bad_alloc::bad_alloc()
FUNC 13f39 18 0 std::operator&(std::memory_order, std::__memory_order_modifier)
FUNC 13f51 2f 0 unsigned long const& std::min<unsigned long>(unsigned long const&, unsigned long const&)
FUNC 13f80 16 0 QArrayData::constAllocatedCapacity() const
FUNC 13f96 23 0 QArrayData::ref()
FUNC 13fba 1e 0 QArrayData::deref()
FUNC 13fd8 24 0 QArrayData::isShared() const
FUNC 13ffc 24 0 QArrayData::needsDetach()
FUNC 14020 95 0 QArrayData::detachCapacity(long long) const
FUNC 140b5 36 0 std::char_traits<char>::length(char const*)
FUNC 140eb 18 0 std::char_traits<char>::to_int_type(char const&)
FUNC 14104 133 0 std::_Sp_counted_base<(__gnu_cxx::_Lock_policy)2>::_M_release()
FUNC 14237 12 0 QByteArrayView::castHelper(char const*)
FUNC 1424a 1f 0 QByteArray::~QByteArray()
FUNC 1426a 16 0 QString::size() const
FUNC 14280 2a 0 QString::QString(QString&&)
FUNC 142aa 29 0 QString::operator+=(QString const&)
FUNC 142d4 3d 0 QString::operator+=(QBasicUtf8StringView<false>)
FUNC 14312 50 0 QString::toUtf8() const &
FUNC 14362 64 0 QString::QString(char const*)
FUNC 143c6 38 0 QString::data() const
FUNC 143fe 1e 0 QString::constData() const
FUNC 1441c 2a 0 QString::QString(QString const&)
FUNC 14446 1f 0 QString::QString()
FUNC 14466 1f 0 QString::~QString()
FUNC 14486 1e 0 QString::begin() const
FUNC 144a4 4b 0 operator+(QString&&, QString const&)
FUNC 144ef b8 0 operator+(QString const&, char const*)
FUNC 145a8 aa 0 QString::toStdString[abi:cxx11]() const
FUNC 14652 1f 0 QList<QString>::~QList()
FUNC 14672 29 0 std::_Rb_tree_header::_Rb_tree_header()
FUNC 1469c 3f 0 std::_Rb_tree_header::_M_reset()
FUNC 146dc 6d 0 __gnu_cxx::char_traits<char>::length(char const*)
FUNC 14749 25 0 __gnu_cxx::char_traits<char>::eq(char const&, char const&)
FUNC 1476e 21 0 std::chrono::duration<long, std::ratio<1l, 1000000000l> >::duration<long, void>(long const&)
FUNC 14790 15 0 std::chrono::duration<long, std::ratio<1l, 1000000000l> >::count() const
FUNC 147a5 7 0 fmt::v11::detail::is_constant_evaluated(bool)
FUNC 147ac c 0 fmt::v11::detail::locale_ref::locale_ref()
FUNC 147b8 10 0 fmt::v11::detail::abort_fuzzing_if(bool)
FUNC 147c8 8 0 fmt::v11::detail::buffer<char>::data()
FUNC 147d0 9 0 fmt::v11::detail::buffer<char>::size() const
FUNC 147da 3b 0 spdlog::source_loc::source_loc(char const*, int, char const*)
FUNC 14815 23 0 spdlog::details::to_string_view(fmt::v11::basic_string_view<char>)
FUNC 14838 80 0 spdlog::logger::should_log(spdlog::level::level_enum) const
FUNC 148b8 40 0 std::__shared_ptr<spdlog::logger, (__gnu_cxx::_Lock_policy)2>::__shared_ptr(std::__shared_ptr<spdlog::logger, (__gnu_cxx::_Lock_policy)2> const&)
FUNC 148f8 23 0 std::__shared_ptr<spdlog::logger, (__gnu_cxx::_Lock_policy)2>::~__shared_ptr()
FUNC 1491c 2a 0 std::shared_ptr<spdlog::logger>::shared_ptr(std::shared_ptr<spdlog::logger> const&)
FUNC 14946 1f 0 std::shared_ptr<spdlog::logger>::~shared_ptr()
FUNC 14966 2d 0 core::Log::logger() const
FUNC 14994 39 0 QDebug::maybeSpace()
FUNC 149ce cd 0 QDebug::operator<<(char const*)
FUNC 14a9c 57 0 QDebug::operator<<(QString const&)
FUNC 14af4 3d 0 QLocale::QLocale(QString const&)
FUNC 14b32 15 0 std::chrono::duration<long, std::ratio<1l, 1000l> >::count() const
FUNC 14b48 1f 0 std::filesystem::__cxx11::path::_List::~_List()
FUNC 14b68 2f 0 std::filesystem::__cxx11::path::~path()
FUNC 14b98 90 0 std::filesystem::__cxx11::path::path(std::__cxx11::basic_string<char, std::char_traits<char>, std::allocator<char> >&&, std::filesystem::__cxx11::path::format)
FUNC 14c28 69 0 std::filesystem::__cxx11::path::path(std::filesystem::__cxx11::path const&)
FUNC 14c91 69 0 std::filesystem::__cxx11::operator/(std::filesystem::__cxx11::path const&, std::filesystem::__cxx11::path const&)
FUNC 14cfa a6 0 std::filesystem::__cxx11::path::string() const
FUNC 14da0 59 0 operator|(QDir::Filter, QDir::Filter)
FUNC 14df9 6c 0 std::common_type<std::chrono::duration<long, std::ratio<1l, 1000000000l> >, std::chrono::duration<long, std::ratio<1l, 1000000000l> > >::type std::chrono::operator-<std::chrono::_V2::system_clock, std::chrono::duration<long, std::ratio<1l, 1000000000l> >, std::chrono::duration<long, std::ratio<1l, 1000000000l> > >(std::chrono::time_point<std::chrono::_V2::system_clock, std::chrono::duration<long, std::ratio<1l, 1000000000l> > > const&, std::chrono::time_point<std::chrono::_V2::system_clock, std::chrono::duration<long, std::ratio<1l, 1000000000l> > > const&)
FUNC 14e66 15 0 std::chrono::time_point<std::chrono::_V2::system_clock, std::chrono::duration<long, std::ratio<1l, 1000000000l> > >::time_since_epoch() const
FUNC 14e7c 2f 0 std::pair<std::__cxx11::basic_string<char, std::char_traits<char>, std::allocator<char> > const, std::__cxx11::basic_string<char, std::char_traits<char>, std::allocator<char> > >::~pair()
FUNC 14eac 133 0 std::pair<std::__cxx11::basic_string<char, std::char_traits<char>, std::allocator<char> > const, std::__cxx11::basic_string<char, std::char_traits<char>, std::allocator<char> > >::pair<char const (&) [8], char const (&) [13], true>(char const (&) [8], char const (&) [13])
FUNC 14fe0 133 0 std::pair<std::__cxx11::basic_string<char, std::char_traits<char>, std::allocator<char> > const, std::__cxx11::basic_string<char, std::char_traits<char>, std::allocator<char> > >::pair<char const (&) [8], char const (&) [6], true>(char const (&) [8], char const (&) [6])
FUNC 15114 133 0 std::pair<std::__cxx11::basic_string<char, std::char_traits<char>, std::allocator<char> > const, std::__cxx11::basic_string<char, std::char_traits<char>, std::allocator<char> > >::pair<char const (&) [8], char const (&) [11], true>(char const (&) [8], char const (&) [11])
FUNC 15248 1f 0 std::map<std::__cxx11::basic_string<char, std::char_traits<char>, std::allocator<char> >, std::__cxx11::basic_string<char, std::char_traits<char>, std::allocator<char> >, std::less<std::__cxx11::basic_string<char, std::char_traits<char>, std::allocator<char> > >, std::allocator<std::pair<std::__cxx11::basic_string<char, std::char_traits<char>, std::allocator<char> > const, std::__cxx11::basic_string<char, std::char_traits<char>, std::allocator<char> > > > >::~map()
FUNC 15268 33 0 core::LogConfig::~LogConfig()
FUNC 1529c 1e 0 QBasicAtomicInteger<int>::loadRelaxed() const
FUNC 152ba 1e 0 QBasicAtomicInteger<int>::ref()
FUNC 152d8 1e 0 QBasicAtomicInteger<int>::deref()
FUNC 152f6 27 0 QtPrivate::QFlagsStorageHelper<QArrayData::ArrayOption, 4>::QFlagsStorage(std::in_place_t, unsigned int)
FUNC 1531e 27 0 QFlags<QArrayData::ArrayOption>::QFlagsStorage(std::in_place_t, unsigned int)
FUNC 15346 54 0 QFlags<QArrayData::ArrayOption>::operator&(QArrayData::ArrayOption) const
FUNC 1539a 14 0 QFlags<QArrayData::ArrayOption>::operator unsigned int() const
FUNC 153ae 27 0 QFlags<QArrayData::ArrayOption>::QFlags(QArrayData::ArrayOption)
FUNC 153d6 28 0 std::__cxx11::basic_string<char, std::char_traits<char>, std::allocator<char> >::_Alloc_hider::~_Alloc_hider()
FUNC 153fe 1f 0 std::_Sp_counted_base<(__gnu_cxx::_Lock_policy)2>::_M_release_last_use_cold()
FUNC 1541e 8b 0 QByteArrayView::QByteArrayView<char, true>(char const*, long long)
FUNC 154aa 52 0 QByteArrayView::QByteArrayView<char const*, true>(char const* const&)
FUNC 154fc 2f 0 long long const& qMax<long long>(long long const&, long long const&)
FUNC 1552c 49 0 QArrayDataPointer<char>::~QArrayDataPointer()
FUNC 15576 8b 0 QStringView::QStringView<QChar, true>(QChar const*, long long)
FUNC 15602 8b 0 QBasicUtf8StringView<false>::QBasicUtf8StringView<char, true>(char const*, long long)
FUNC 1568d 12 0 std::remove_reference<QString&>::type&& std::move<QString&>(QString&)
FUNC 156a0 a9 0 QArrayDataPointer<char16_t>::QArrayDataPointer(QArrayDataPointer<char16_t>&&)
FUNC 1574a 49 0 QArrayDataPointer<char16_t>::~QArrayDataPointer()
FUNC 15794 3f 0 QBasicUtf8StringView<false>::QBasicUtf8StringView<char const*, true>(char const* const&)
FUNC 157d4 16 0 QArrayDataPointer<char16_t>::data() const
FUNC 157ea 51 0 QArrayDataPointer<char16_t>::QArrayDataPointer(QArrayDataPointer<char16_t> const&)
FUNC 1583b 72 0 QStringView qToStringViewIgnoringNull<QString, true>(QString const&)
FUNC 158ae 32 0 QArrayDataPointer<char16_t>::QArrayDataPointer()
FUNC 158e0 49 0 QArrayDataPointer<QString>::~QArrayDataPointer()
FUNC 15929 5 0 void fmt::v11::detail::ignore_unused<bool>(bool const&)
FUNC 1592e c 0 fmt::v11::basic_string_view<char>::basic_string_view(char const*, unsigned long)
FUNC 1593a 2e 0 std::__shared_count<(__gnu_cxx::_Lock_policy)2>::~__shared_count()
FUNC 15968 12 0 std::remove_reference<std::__cxx11::basic_string<char, std::char_traits<char>, std::allocator<char> >&>::type&& std::move<std::__cxx11::basic_string<char, std::char_traits<char>, std::allocator<char> >&>(std::__cxx11::basic_string<char, std::char_traits<char>, std::allocator<char> >&)
FUNC 1597a 30 0 fmt::v11::basic_string_view<char>::basic_string_view<std::__cxx11::basic_string<char, std::char_traits<char>, std::allocator<char> >, 0>(std::__cxx11::basic_string<char, std::char_traits<char>, std::allocator<char> > const&)
FUNC 159aa 5 0 void fmt::v11::detail::ignore_unused<fmt::v11::basic_string_view<char> >(fmt::v11::basic_string_view<char> const&)
FUNC 159b0 1f 0 fmt::v11::basic_memory_buffer<char, 250ul, fmt::v11::detail::allocator<char> >::~basic_memory_buffer()
FUNC 159d0 7e 0 fmt::v11::basic_memory_buffer<char, 250ul, fmt::v11::detail::allocator<char> >::basic_memory_buffer(fmt::v11::detail::allocator<char> const&)
FUNC 15a4e a8 0 std::__cxx11::basic_string<char, std::char_traits<char>, std::allocator<char> >::basic_string<std::allocator<char> >(char const*, std::allocator<char> const&)
FUNC 15af6 40 0 std::__shared_count<(__gnu_cxx::_Lock_policy)2>::__shared_count(std::__shared_count<(__gnu_cxx::_Lock_policy)2> const&)
FUNC 15b36 79 0 std::enable_if<std::__and_<std::__not_<std::__is_tuple_like<long long> >, std::is_move_constructible<long long>, std::is_move_assignable<long long> >::value, void>::type std::swap<long long>(long long&, long long&)
FUNC 15bb0 68 0 std::unique_ptr<std::filesystem::__cxx11::path::_List::_Impl, std::filesystem::__cxx11::path::_List::_Impl_deleter>::~unique_ptr()
FUNC 15c18 36 0 std::basic_string_view<char, std::char_traits<char> >::basic_string_view(char const*)
FUNC 15c4e 5a 0 std::__cxx11::basic_string<char, std::char_traits<char>, std::allocator<char> > std::filesystem::__cxx11::path::string<char, std::char_traits<char>, std::allocator<char> >(std::allocator<char> const&) const
FUNC 15ca8 27 0 QtPrivate::QFlagsStorageHelper<QDir::Filter, 4>::QFlagsStorage(std::in_place_t, int)
FUNC 15cd0 27 0 QFlags<QDir::Filter>::QFlags(QDir::Filter)
FUNC 15cf8 27 0 QFlags<QDir::Filter>::QFlagsStorage(std::in_place_t, int)
FUNC 15d20 54 0 QFlags<QDir::Filter>::operator|(QDir::Filter) const
FUNC 15d74 27 0 QtPrivate::QFlagsStorageHelper<QDir::SortFlag, 4>::QFlagsStorage(std::in_place_t, int)
FUNC 15d9c 27 0 QFlags<QDir::SortFlag>::QFlags(QDir::SortFlag)
FUNC 15dc4 6b 0 QList<QString>::begin()
FUNC 15e30 6b 0 QList<QString>::end()
FUNC 15e9c 23 0 QList<QString>::iterator::operator!=(QList<QString>::iterator) const
FUNC 15ec0 24 0 QList<QString>::iterator::operator++()
FUNC 15ee4 15 0 QList<QString>::iterator::operator*() const
FUNC 15efa 1e 0 std::__shared_ptr_access<spdlog::logger, (__gnu_cxx::_Lock_policy)2, false, false>::operator->() const
FUNC 15f18 90 0 void spdlog::logger::log<int&>(spdlog::source_loc, spdlog::level::level_enum, fmt::v11::fstring<int&>::t, int&)
FUNC 15fa8 1e 0 std::enable_if<std::chrono::__is_duration<std::chrono::duration<long, std::ratio<1l, 1000l> > >::value, std::chrono::duration<long, std::ratio<1l, 1000l> > >::type std::chrono::duration_cast<std::chrono::duration<long, std::ratio<1l, 1000l> >, long, std::ratio<1l, 1000000000l> >(std::chrono::duration<long, std::ratio<1l, 1000000000l> > const&)
FUNC 15fc6 90 0 std::common_type<std::chrono::duration<long, std::ratio<1l, 1000000000l> >, std::chrono::duration<long, std::ratio<1l, 1000000000l> > >::type std::chrono::operator-<long, std::ratio<1l, 1000000000l>, long, std::ratio<1l, 1000000000l> >(std::chrono::duration<long, std::ratio<1l, 1000000000l> > const&, std::chrono::duration<long, std::ratio<1l, 1000000000l> > const&)
FUNC 16056 12 0 char const (&std::forward<char const (&) [8]>(std::remove_reference<char const (&) [8]>::type&)) [8]
FUNC 16068 12 0 char const (&std::forward<char const (&) [13]>(std::remove_reference<char const (&) [13]>::type&)) [13]
FUNC 1607a 12 0 char const (&std::forward<char const (&) [6]>(std::remove_reference<char const (&) [6]>::type&)) [6]
FUNC 1608c 12 0 char const (&std::forward<char const (&) [11]>(std::remove_reference<char const (&) [11]>::type&)) [11]
FUNC 1609e 12b 0 std::map<std::__cxx11::basic_string<char, std::char_traits<char>, std::allocator<char> >, std::__cxx11::basic_string<char, std::char_traits<char>, std::allocator<char> >, std::less<std::__cxx11::basic_string<char, std::char_traits<char>, std::allocator<char> > >, std::allocator<std::pair<std::__cxx11::basic_string<char, std::char_traits<char>, std::allocator<char> > const, std::__cxx11::basic_string<char, std::char_traits<char>, std::allocator<char> > > > >::map(std::initializer_list<std::pair<std::__cxx11::basic_string<char, std::char_traits<char>, std::allocator<char> > const, std::__cxx11::basic_string<char, std::char_traits<char>, std::allocator<char> > > >, std::less<std::__cxx11::basic_string<char, std::char_traits<char>, std::allocator<char> > > const&, std::allocator<std::pair<std::__cxx11::basic_string<char, std::char_traits<char>, std::allocator<char> > const, std::__cxx11::basic_string<char, std::char_traits<char>, std::allocator<char> > > > const&)
FUNC 161ca 28 0 std::_Rb_tree<std::__cxx11::basic_string<char, std::char_traits<char>, std::allocator<char> >, std::pair<std::__cxx11::basic_string<char, std::char_traits<char>, std::allocator<char> > const, std::__cxx11::basic_string<char, std::char_traits<char>, std::allocator<char> > >, std::_Select1st<std::pair<std::__cxx11::basic_string<char, std::char_traits<char>, std::allocator<char> > const, std::__cxx11::basic_string<char, std::char_traits<char>, std::allocator<char> > > >, std::less<std::__cxx11::basic_string<char, std::char_traits<char>, std::allocator<char> > >, std::allocator<std::pair<std::__cxx11::basic_string<char, std::char_traits<char>, std::allocator<char> > const, std::__cxx11::basic_string<char, std::char_traits<char>, std::allocator<char> > > > >::_Rb_tree_impl<std::less<std::__cxx11::basic_string<char, std::char_traits<char>, std::allocator<char> > >, true>::~_Rb_tree_impl()
FUNC 161f2 3d 0 std::_Rb_tree<std::__cxx11::basic_string<char, std::char_traits<char>, std::allocator<char> >, std::pair<std::__cxx11::basic_string<char, std::char_traits<char>, std::allocator<char> > const, std::__cxx11::basic_string<char, std::char_traits<char>, std::allocator<char> > >, std::_Select1st<std::pair<std::__cxx11::basic_string<char, std::char_traits<char>, std::allocator<char> > const, std::__cxx11::basic_string<char, std::char_traits<char>, std::allocator<char> > > >, std::less<std::__cxx11::basic_string<char, std::char_traits<char>, std::allocator<char> > >, std::allocator<std::pair<std::__cxx11::basic_string<char, std::char_traits<char>, std::allocator<char> > const, std::__cxx11::basic_string<char, std::char_traits<char>, std::allocator<char> > > > >::~_Rb_tree()
FUNC 16230 a5 0 std::vector<std::__cxx11::basic_string<char, std::char_traits<char>, std::allocator<char> >, std::allocator<std::__cxx11::basic_string<char, std::char_traits<char>, std::allocator<char> > > >::vector<char const* const*, void>(char const* const*, char const* const*, std::allocator<std::__cxx11::basic_string<char, std::char_traits<char>, std::allocator<char> > > const&)
FUNC 162d6 5a 0 std::vector<std::__cxx11::basic_string<char, std::char_traits<char>, std::allocator<char> >, std::allocator<std::__cxx11::basic_string<char, std::char_traits<char>, std::allocator<char> > > >::~vector()
FUNC 16330 50 0 auto std::filesystem::__cxx11::__detail::__effective_range<char [8]>(char const (&) [8])
FUNC 16380 23 0 auto std::filesystem::__cxx11::path::_S_convert<std::basic_string_view<char, std::char_traits<char> > >(std::basic_string_view<char, std::char_traits<char> >)
FUNC 163a4 143 0 std::filesystem::__cxx11::path::path<char [8], std::filesystem::__cxx11::path>(char const (&) [8], std::filesystem::__cxx11::path::format)
FUNC 164e7 12 0 int&& std::forward<int>(std::remove_reference<int>::type&)
FUNC 164f9 73 0 int QAtomicOps<int>::loadRelaxed<int>(std::atomic<int> const&)
FUNC 1656c 37 0 bool QAtomicOps<int>::ref<int>(std::atomic<int>&)
FUNC 165a3 39 0 bool QAtomicOps<int>::deref<int>(std::atomic<int>&)
FUNC 165dc 1b 0 QtPrivate::QFlagsStorage<QArrayData::ArrayOption>::QFlagsStorage(std::in_place_t, unsigned int)
FUNC 165f8 f 0 std::__new_allocator<char>::~__new_allocator()
FUNC 16608 1e 0 std::__cxx11::basic_string<char, std::char_traits<char>, std::allocator<char> >::_M_construct<char const*>(char const*, char const*, std::forward_iterator_tag)::_Guard::_Guard(std::__cxx11::basic_string<char, std::char_traits<char>, std::allocator<char> >*)
FUNC 16626 2e 0 std::__cxx11::basic_string<char, std::char_traits<char>, std::allocator<char> >::_M_construct<char const*>(char const*, char const*, std::forward_iterator_tag)::_Guard::~_Guard()
FUNC 16654 119 0 void std::__cxx11::basic_string<char, std::char_traits<char>, std::allocator<char> >::_M_construct<char const*>(char const*, char const*, std::forward_iterator_tag)
FUNC 1676e ba 0 std::_Sp_counted_base<(__gnu_cxx::_Lock_policy)2>::_M_release_last_use()
FUNC 16828 34 0 long long std::exchange<long long, int>(long long&, int&&)
FUNC 1685c 3d 0 QArrayDataPointer<char>::deref()
FUNC 1689a 12 0 QArrayDataPointer<char>::operator->()
FUNC 168ac 6e 0 QtPrivate::QPodArrayOps<char>::destroyAll()
FUNC 1691a 29 0 QTypedArrayData<char>::deallocate(QArrayData*)
FUNC 16943 12 0 char16_t const* QStringView::castHelper<QChar>(QChar const*)
FUNC 16955 12 0 QBasicUtf8StringView<false>::castHelper(char const*)
FUNC 16967 34 0 QTypedArrayData<char16_t>* std::exchange<QTypedArrayData<char16_t>*, decltype(nullptr)>(QTypedArrayData<char16_t>*&, decltype(nullptr)&&)
FUNC 1699b 34 0 char16_t* std::exchange<char16_t*, decltype(nullptr)>(char16_t*&, decltype(nullptr)&&)
FUNC 169d0 3d 0 QArrayDataPointer<char16_t>::deref()
FUNC 16a0e 12 0 QArrayDataPointer<char16_t>::operator->()
FUNC 16a20 6e 0 QtPrivate::QPodArrayOps<char16_t>::destroyAll()
FUNC 16a8e 29 0 QTypedArrayData<char16_t>::deallocate(QArrayData*)
FUNC 16ab8 2e 0 QArrayDataPointer<char16_t>::ref()
FUNC 16ae6 12 0 decltype(nullptr)&& std::forward<decltype(nullptr)>(std::remove_reference<decltype(nullptr)>::type&)
FUNC 16af8 3d 0 QArrayDataPointer<QString>::deref()
FUNC 16b36 12 0 QArrayDataPointer<QString>::operator->()
FUNC 16b48 99 0 QtPrivate::QGenericArrayOps<QString>::destroyAll()
FUNC 16be1 29 0 QTypedArrayData<QString>::deallocate(QArrayData*)
FUNC 16c0a 10 0 unsigned long fmt::v11::max_of<unsigned long>(unsigned long, unsigned long)
FUNC 16c1a f 0 unsigned long fmt::v11::detail::max_value<unsigned long>()
FUNC 16c2a 5f 0 fmt::v11::basic_memory_buffer<char, 250ul, fmt::v11::detail::allocator<char> >::deallocate()
FUNC 16c89 15e 0 fmt::v11::basic_memory_buffer<char, 250ul, fmt::v11::detail::allocator<char> >::grow(fmt::v11::detail::buffer<char>&, unsigned long)
FUNC 16de8 14 0 fmt::v11::detail::buffer<char>::buffer(void (*)(fmt::v11::detail::buffer<char>&, unsigned long), char*, unsigned long, unsigned long)
FUNC 16dfc c 0 fmt::v11::detail::buffer<char>::set(char*, unsigned long)
FUNC 16e08 71 0 char* fmt::v11::detail::fill_n<char, unsigned long>(char*, unsigned long, char)
FUNC 16e7a 70 0 std::_Sp_counted_base<(__gnu_cxx::_Lock_policy)2>::_M_add_ref_copy()
FUNC 16eea 12 0 std::remove_reference<long long&>::type&& std::move<long long&>(long long&)
FUNC 16efc 1e 0 std::__uniq_ptr_impl<std::filesystem::__cxx11::path::_List::_Impl, std::filesystem::__cxx11::path::_List::_Impl_deleter>::_M_ptr()
FUNC 16f1a 1e 0 std::unique_ptr<std::filesystem::__cxx11::path::_List::_Impl, std::filesystem::__cxx11::path::_List::_Impl_deleter>::get_deleter()
FUNC 16f38 12 0 std::remove_reference<std::filesystem::__cxx11::path::_List::_Impl*&>::type&& std::move<std::filesystem::__cxx11::path::_List::_Impl*&>(std::filesystem::__cxx11::path::_List::_Impl*&)
FUNC 16f4a 12 0 std::__cxx11::basic_string<char, std::char_traits<char>, std::allocator<char> >* std::__addressof<std::__cxx11::basic_string<char, std::char_traits<char>, std::allocator<char> > >(std::__cxx11::basic_string<char, std::char_traits<char>, std::allocator<char> >&)
FUNC 16f5c 1e 0 std::__uniq_ptr_impl<std::filesystem::__cxx11::path::_List::_Impl, std::filesystem::__cxx11::path::_List::_Impl_deleter>::_M_deleter()
FUNC 16f7a 1b 0 QtPrivate::QFlagsStorage<QDir::SortFlag>::QFlagsStorage(std::in_place_t, int)
FUNC 16f96 1b 0 QtPrivate::QFlagsStorage<QDir::Filter>::QFlagsStorage(std::in_place_t, int)
FUNC 16fb2 24 0 QList<QString>::detach()
FUNC 16fd6 1e 0 QArrayDataPointer<QString>::begin()
FUNC 16ff4 1e 0 QList<QString>::iterator::iterator(QString*)
FUNC 17012 3c 0 QArrayDataPointer<QString>::end()
FUNC 1704e 1e 0 std::__shared_ptr_access<spdlog::logger, (__gnu_cxx::_Lock_policy)2, false, false>::_M_get() const
FUNC 1706c 12 0 int& std::forward<int&>(std::remove_reference<int&>::type&)
FUNC 1707e 49 0 spdlog::logger::log_<int&>(spdlog::source_loc, spdlog::level::level_enum, fmt::v11::basic_string_view<char>, int&)::{lambda()#1}::operator()() const
FUNC 170ea 625 0 void spdlog::logger::log_<int&>(spdlog::source_loc, spdlog::level::level_enum, fmt::v11::basic_string_view<char>, int&)
FUNC 1770f 80 0 std::chrono::duration<long, std::ratio<1l, 1000l> > std::chrono::__duration_cast_impl<std::chrono::duration<long, std::ratio<1l, 1000l> >, std::ratio<1l, 1000000l>, long, true, false>::__cast<long, std::ratio<1l, 1000000000l> >(std::chrono::duration<long, std::ratio<1l, 1000000000l> > const&)
FUNC 17790 f 0 std::__new_allocator<std::pair<std::__cxx11::basic_string<char, std::char_traits<char>, std::allocator<char> > const, std::__cxx11::basic_string<char, std::char_traits<char>, std::allocator<char> > > >::~__new_allocator()
FUNC 177a0 ae 0 std::_Rb_tree<std::__cxx11::basic_string<char, std::char_traits<char>, std::allocator<char> >, std::pair<std::__cxx11::basic_string<char, std::char_traits<char>, std::allocator<char> > const, std::__cxx11::basic_string<char, std::char_traits<char>, std::allocator<char> > >, std::_Select1st<std::pair<std::__cxx11::basic_string<char, std::char_traits<char>, std::allocator<char> > const, std::__cxx11::basic_string<char, std::char_traits<char>, std::allocator<char> > > >, std::less<std::__cxx11::basic_string<char, std::char_traits<char>, std::allocator<char> > >, std::allocator<std::pair<std::__cxx11::basic_string<char, std::char_traits<char>, std::allocator<char> > const, std::__cxx11::basic_string<char, std::char_traits<char>, std::allocator<char> > > > >::_Rb_tree(std::less<std::__cxx11::basic_string<char, std::char_traits<char>, std::allocator<char> > > const&, std::allocator<std::pair<std::__cxx11::basic_string<char, std::char_traits<char>, std::allocator<char> > const, std::__cxx11::basic_string<char, std::char_traits<char>, std::allocator<char> > > > const&)
FUNC 1784e 15 0 std::initializer_list<std::pair<std::__cxx11::basic_string<char, std::char_traits<char>, std::allocator<char> > const, std::__cxx11::basic_string<char, std::char_traits<char>, std::allocator<char> > > >::begin() const
FUNC 17864 39 0 std::initializer_list<std::pair<std::__cxx11::basic_string<char, std::char_traits<char>, std::allocator<char> > const, std::__cxx11::basic_string<char, std::char_traits<char>, std::allocator<char> > > >::end() const
FUNC 1789e 9d 0 std::enable_if<std::is_same<std::pair<std::__cxx11::basic_string<char, std::char_traits<char>, std::allocator<char> > const, std::__cxx11::basic_string<char, std::char_traits<char>, std::allocator<char> > >, std::iterator_traits<std::pair<std::__cxx11::basic_string<char, std::char_traits<char>, std::allocator<char> > const, std::__cxx11::basic_string<char, std::char_traits<char>, std::allocator<char> > > const*>::value_type>::value, void>::type std::_Rb_tree<std::__cxx11::basic_string<char, std::char_traits<char>, std::allocator<char> >, std::pair<std::__cxx11::basic_string<char, std::char_traits<char>, std::allocator<char> > const, std::__cxx11::basic_string<char, std::char_traits<char>, std::allocator<char> > >, std::_Select1st<std::pair<std::__cxx11::basic_string<char, std::char_traits<char>, std::allocator<char> > const, std::__cxx11::basic_string<char, std::char_traits<char>, std::allocator<char> > > >, std::less<std::__cxx11::basic_string<char, std::char_traits<char>, std::allocator<char> > >, std::allocator<std::pair<std::__cxx11::basic_string<char, std::char_traits<char>, std::allocator<char> > const, std::__cxx11::basic_string<char, std::char_traits<char>, std::allocator<char> > > > >::_M_insert_range_unique<std::pair<std::__cxx11::basic_string<char, std::char_traits<char>, std::allocator<char> > const, std::__cxx11::basic_string<char, std::char_traits<char>, std::allocator<char> > > const*>(std::pair<std::__cxx11::basic_string<char, std::char_traits<char>, std::allocator<char> > const, std::__cxx11::basic_string<char, std::char_traits<char>, std::allocator<char> > > const*, std::pair<std::__cxx11::basic_string<char, std::char_traits<char>, std::allocator<char> > const, std::__cxx11::basic_string<char, std::char_traits<char>, std::allocator<char> > > const*)
FUNC 1793c 6a 0 std::_Rb_tree<std::__cxx11::basic_string<char, std::char_traits<char>, std::allocator<char> >, std::pair<std::__cxx11::basic_string<char, std::char_traits<char>, std::allocator<char> > const, std::__cxx11::basic_string<char, std::char_traits<char>, std::allocator<char> > >, std::_Select1st<std::pair<std::__cxx11::basic_string<char, std::char_traits<char>, std::allocator<char> > const, std::__cxx11::basic_string<char, std::char_traits<char>, std::allocator<char> > > >, std::less<std::__cxx11::basic_string<char, std::char_traits<char>, std::allocator<char> > >, std::allocator<std::pair<std::__cxx11::basic_string<char, std::char_traits<char>, std::allocator<char> > const, std::__cxx11::basic_string<char, std::char_traits<char>, std::allocator<char> > > > >::_M_erase(std::_Rb_tree_node<std::pair<std::__cxx11::basic_string<char, std::char_traits<char>, std::allocator<char> > const, std::__cxx11::basic_string<char, std::char_traits<char>, std::allocator<char> > > >*)
FUNC 179a6 1e 0 std::_Rb_tree<std::__cxx11::basic_string<char, std::char_traits<char>, std::allocator<char> >, std::pair<std::__cxx11::basic_string<char, std::char_traits<char>, std::allocator<char> > const, std::__cxx11::basic_string<char, std::char_traits<char>, std::allocator<char> > >, std::_Select1st<std::pair<std::__cxx11::basic_string<char, std::char_traits<char>, std::allocator<char> > const, std::__cxx11::basic_string<char, std::char_traits<char>, std::allocator<char> > > >, std::less<std::__cxx11::basic_string<char, std::char_traits<char>, std::allocator<char> > >, std::allocator<std::pair<std::__cxx11::basic_string<char, std::char_traits<char>, std::allocator<char> > const, std::__cxx11::basic_string<char, std::char_traits<char>, std::allocator<char> > > > >::_M_begin()
FUNC 179c4 f 0 std::__new_allocator<std::__cxx11::basic_string<char, std::char_traits<char>, std::allocator<char> > >::~__new_allocator()
FUNC 179d4 28 0 std::_Vector_base<std::__cxx11::basic_string<char, std::char_traits<char>, std::allocator<char> >, std::allocator<std::__cxx11::basic_string<char, std::char_traits<char>, std::allocator<char> > > >::_Vector_impl::~_Vector_impl()
FUNC 179fc 2a 0 std::_Vector_base<std::__cxx11::basic_string<char, std::char_traits<char>, std::allocator<char> >, std::allocator<std::__cxx11::basic_string<char, std::char_traits<char>, std::allocator<char> > > >::_Vector_base(std::allocator<std::__cxx11::basic_string<char, std::char_traits<char>, std::allocator<char> > > const&)
FUNC 17a26 51 0 std::_Vector_base<std::__cxx11::basic_string<char, std::char_traits<char>, std::allocator<char> >, std::allocator<std::__cxx11::basic_string<char, std::char_traits<char>, std::allocator<char> > > >::~_Vector_base()
FUNC 17a78 f1 0 void std::vector<std::__cxx11::basic_string<char, std::char_traits<char>, std::allocator<char> >, std::allocator<std::__cxx11::basic_string<char, std::char_traits<char>, std::allocator<char> > > >::_M_range_initialize<char const* const*>(char const* const*, char const* const*, std::forward_iterator_tag)
FUNC 17b6a 12 0 std::_Vector_base<std::__cxx11::basic_string<char, std::char_traits<char>, std::allocator<char> >, std::allocator<std::__cxx11::basic_string<char, std::char_traits<char>, std::allocator<char> > > >::_M_get_Tp_allocator()
FUNC 17b7c 86 0 std::__cxx11::basic_string<char, std::char_traits<char>, std::allocator<char> >::basic_string<std::basic_string_view<char, std::char_traits<char> >, void>(std::basic_string_view<char, std::char_traits<char> > const&, std::allocator<char> const&)
FUNC 17c02 45 0 long long std::__exchange<long long, int>(long long&, int&&)
FUNC 17c47 44 0 QTypedArrayData<char16_t>* std::__exchange<QTypedArrayData<char16_t>*, decltype(nullptr)>(QTypedArrayData<char16_t>*&, decltype(nullptr)&&)
FUNC 17c8b 44 0 char16_t* std::__exchange<char16_t*, decltype(nullptr)>(char16_t*&, decltype(nullptr)&&)
FUNC 17ccf 2a 0 void std::destroy<QString*>(QString*, QString*)
FUNC 17cfa 9 0 fmt::v11::detail::buffer<char>::capacity() const
FUNC 17d04 27 0 fmt::v11::detail::allocator<char>::deallocate(char*, unsigned long)
FUNC 17d2b 28 0 std::allocator_traits<fmt::v11::detail::allocator<char> >::max_size(fmt::v11::detail::allocator<char> const&)
FUNC 17d54 90 0 fmt::v11::detail::allocator<char>::allocate(unsigned long)
FUNC 17de4 48 0 char* fmt::v11::detail::fill_n<char*, unsigned long, char>(char*, unsigned long, char const&)
FUNC 17e2c 8 0 std::make_unsigned<unsigned long>::type fmt::v11::detail::to_unsigned<unsigned long>(unsigned long)
FUNC 17e34 1e 0 std::tuple_element<0ul, std::tuple<std::filesystem::__cxx11::path::_List::_Impl*, std::filesystem::__cxx11::path::_List::_Impl_deleter> >::type& std::get<0ul, std::filesystem::__cxx11::path::_List::_Impl*, std::filesystem::__cxx11::path::_List::_Impl_deleter>(std::tuple<std::filesystem::__cxx11::path::_List::_Impl*, std::filesystem::__cxx11::path::_List::_Impl_deleter>&)
FUNC 17e52 1e 0 std::tuple_element<1ul, std::tuple<std::filesystem::__cxx11::path::_List::_Impl*, std::filesystem::__cxx11::path::_List::_Impl_deleter> >::type& std::get<1ul, std::filesystem::__cxx11::path::_List::_Impl*, std::filesystem::__cxx11::path::_List::_Impl_deleter>(std::tuple<std::filesystem::__cxx11::path::_List::_Impl*, std::filesystem::__cxx11::path::_List::_Impl_deleter>&)
FUNC 17e70 44 0 QArrayDataPointer<QString>::detach(QArrayDataPointer<QString>*)
FUNC 17eb4 16 0 QArrayDataPointer<QString>::data()
FUNC 17eca 15 0 std::__shared_ptr<spdlog::logger, (__gnu_cxx::_Lock_policy)2>::get() const
FUNC 17ee0 8 0 fmt::v11::basic_appender<char>::basic_appender(fmt::v11::detail::buffer<char>&)
FUNC 17ee8 91 0 std::remove_cv<std::remove_reference<fmt::v11::basic_appender<char> >::type>::type fmt::v11::vformat_to<fmt::v11::basic_appender<char>, 0>(fmt::v11::basic_appender<char>&&, fmt::v11::basic_string_view<char>, fmt::v11::basic_format_args<fmt::v11::context>)
FUNC 17f79 70 0 fmt::v11::basic_string_view<char> fmt::v11::detail::compile_string_to_view<char, 12ul>(char const (&) [12ul])
FUNC 17fea 21 0 std::chrono::duration<long, std::ratio<1l, 1000l> >::duration<long, void>(long const&)
FUNC 1800c 68 0 std::_Rb_tree<std::__cxx11::basic_string<char, std::char_traits<char>, std::allocator<char> >, std::pair<std::__cxx11::basic_string<char, std::char_traits<char>, std::allocator<char> > const, std::__cxx11::basic_string<char, std::char_traits<char>, std::allocator<char> > >, std::_Select1st<std::pair<std::__cxx11::basic_string<char, std::char_traits<char>, std::allocator<char> > const, std::__cxx11::basic_string<char, std::char_traits<char>, std::allocator<char> > > >, std::less<std::__cxx11::basic_string<char, std::char_traits<char>, std::allocator<char> > >, std::allocator<std::pair<std::__cxx11::basic_string<char, std::char_traits<char>, std::allocator<char> > const, std::__cxx11::basic_string<char, std::char_traits<char>, std::allocator<char> > > > >::_Rb_tree_impl<std::less<std::__cxx11::basic_string<char, std::char_traits<char>, std::allocator<char> > >, true>::_Rb_tree_impl(std::less<std::__cxx11::basic_string<char, std::char_traits<char>, std::allocator<char> > > const&, std::allocator<std::_Rb_tree_node<std::pair<std::__cxx11::basic_string<char, std::char_traits<char>, std::allocator<char> > const, std::__cxx11::basic_string<char, std::char_traits<char>, std::allocator<char> > > > >&&)
FUNC 18074 16 0 std::initializer_list<std::pair<std::__cxx11::basic_string<char, std::char_traits<char>, std::allocator<char> > const, std::__cxx11::basic_string<char, std::char_traits<char>, std::allocator<char> > > >::size() const
FUNC 1808a 1e 0 std::_Rb_tree<std::__cxx11::basic_string<char, std::char_traits<char>, std::allocator<char> >, std::pair<std::__cxx11::basic_string<char, std::char_traits<char>, std::allocator<char> > const, std::__cxx11::basic_string<char, std::char_traits<char>, std::allocator<char> > >, std::_Select1st<std::pair<std::__cxx11::basic_string<char, std::char_traits<char>, std::allocator<char> > const, std::__cxx11::basic_string<char, std::char_traits<char>, std::allocator<char> > > >, std::less<std::__cxx11::basic_string<char, std::char_traits<char>, std::allocator<char> > >, std::allocator<std::pair<std::__cxx11::basic_string<char, std::char_traits<char>, std::allocator<char> > const, std::__cxx11::basic_string<char, std::char_traits<char>, std::allocator<char> > > > >::_Alloc_node::_Alloc_node(std::_Rb_tree<std::__cxx11::basic_string<char, std::char_traits<char>, std::allocator<char> >, std::pair<std::__cxx11::basic_string<char, std::char_traits<char>, std::allocator<char> > const, std::__cxx11::basic_string<char, std::char_traits<char>, std::allocator<char> > >, std::_Select1st<std::pair<std::__cxx11::basic_string<char, std::char_traits<char>, std::allocator<char> > const, std::__cxx11::basic_string<char, std::char_traits<char>, std::allocator<char> > > >, std::less<std::__cxx11::basic_string<char, std::char_traits<char>, std::allocator<char> > >, std::allocator<std::pair<std::__cxx11::basic_string<char, std::char_traits<char>, std::allocator<char> > const, std::__cxx11::basic_string<char, std::char_traits<char>, std::allocator<char> > > > >&)
FUNC 180a8 50 0 std::_Rb_tree<std::__cxx11::basic_string<char, std::char_traits<char>, std::allocator<char> >, std::pair<std::__cxx11::basic_string<char, std::char_traits<char>, std::allocator<char> > const, std::__cxx11::basic_string<char, std::char_traits<char>, std::allocator<char> > >, std::_Select1st<std::pair<std::__cxx11::basic_string<char, std::char_traits<char>, std::allocator<char> > const, std::__cxx11::basic_string<char, std::char_traits<char>, std::allocator<char> > > >, std::less<std::__cxx11::basic_string<char, std::char_traits<char>, std::allocator<char> > >, std::allocator<std::pair<std::__cxx11::basic_string<char, std::char_traits<char>, std::allocator<char> > const, std::__cxx11::basic_string<char, std::char_traits<char>, std::allocator<char> > > > >::end()
FUNC 180f8 21 0 std::_Rb_tree_const_iterator<std::pair<std::__cxx11::basic_string<char, std::char_traits<char>, std::allocator<char> > const, std::__cxx11::basic_string<char, std::char_traits<char>, std::allocator<char> > > >::_Rb_tree_const_iterator(std::_Rb_tree_iterator<std::pair<std::__cxx11::basic_string<char, std::char_traits<char>, std::allocator<char> > const, std::__cxx11::basic_string<char, std::char_traits<char>, std::allocator<char> > > > const&)
FUNC 1811a be 0 std::_Rb_tree_iterator<std::pair<std::__cxx11::basic_string<char, std::char_traits<char>, std::allocator<char> > const, std::__cxx11::basic_string<char, std::char_traits<char>, std::allocator<char> > > > std::_Rb_tree<std::__cxx11::basic_string<char, std::char_traits<char>, std::allocator<char> >, std::pair<std::__cxx11::basic_string<char, std::char_traits<char>, std::allocator<char> > const, std::__cxx11::basic_string<char, std::char_traits<char>, std::allocator<char> > >, std::_Select1st<std::pair<std::__cxx11::basic_string<char, std::char_traits<char>, std::allocator<char> > const, std::__cxx11::basic_string<char, std::char_traits<char>, std::allocator<char> > > >, std::less<std::__cxx11::basic_string<char, std::char_traits<char>, std::allocator<char> > >, std::allocator<std::pair<std::__cxx11::basic_string<char, std::char_traits<char>, std::allocator<char> > const, std::__cxx11::basic_string<char, std::char_traits<char>, std::allocator<char> > > > >::_M_insert_unique_<std::pair<std::__cxx11::basic_string<char, std::char_traits<char>, std::allocator<char> > const, std::__cxx11::basic_string<char, std::char_traits<char>, std::allocator<char> > > const&, std::_Rb_tree<std::__cxx11::basic_string<char, std::char_traits<char>, std::allocator<char> >, std::pair<std::__cxx11::basic_string<char, std::char_traits<char>, std::allocator<char> > const, std::__cxx11::basic_string<char, std::char_traits<char>, std::allocator<char> > >, std::_Select1st<std::pair<std::__cxx11::basic_string<char, std::char_traits<char>, std::allocator<char> > const, std::__cxx11::basic_string<char, std::char_traits<char>, std::allocator<char> > > >, std::less<std::__cxx11::basic_string<char, std::char_traits<char>, std::allocator<char> > >, std::allocator<std::pair<std::__cxx11::basic_string<char, std::char_traits<char>, std::allocator<char> > const, std::__cxx11::basic_string<char, std::char_traits<char>, std::allocator<char> > > > >::_Alloc_node>(std::_Rb_tree_const_iterator<std::pair<std::__cxx11::basic_string<char, std::char_traits<char>, std::allocator<char> > const, std::__cxx11::basic_string<char, std::char_traits<char>, std::allocator<char> > > >, std::pair<std::__cxx11::basic_string<char, std::char_traits<char>, std::allocator<char> > const, std::__cxx11::basic_string<char, std::char_traits<char>, std::allocator<char> > > const&, std::_Rb_tree<std::__cxx11::basic_string<char, std::char_traits<char>, std::allocator<char> >, std::pair<std::__cxx11::basic_string<char, std::char_traits<char>, std::allocator<char> > const, std::__cxx11::basic_string<char, std::char_traits<char>, std::allocator<char> > >, std::_Select1st<std::pair<std::__cxx11::basic_string<char, std::char_traits<char>, std::allocator<char> > const, std::__cxx11::basic_string<char, std::char_traits<char>, std::allocator<char> > > >, std::less<std::__cxx11::basic_string<char, std::char_traits<char>, std::allocator<char> > >, std::allocator<std::pair<std::__cxx11::basic_string<char, std::char_traits<char>, std::allocator<char> > const, std::__cxx11::basic_string<char, std::char_traits<char>, std::allocator<char> > > > >::_Alloc_node&)
FUNC 181d8 f 0 std::__new_allocator<std::_Rb_tree_node<std::pair<std::__cxx11::basic_string<char, std::char_traits<char>, std::allocator<char> > const, std::__cxx11::basic_string<char, std::char_traits<char>, std::allocator<char> > > > >::~__new_allocator()
FUNC 181e7 16 0 std::_Rb_tree<std::__cxx11::basic_string<char, std::char_traits<char>, std::allocator<char> >, std::pair<std::__cxx11::basic_string<char, std::char_traits<char>, std::allocator<char> > const, std::__cxx11::basic_string<char, std::char_traits<char>, std::allocator<char> > >, std::_Select1st<std::pair<std::__cxx11::basic_string<char, std::char_traits<char>, std::allocator<char> > const, std::__cxx11::basic_string<char, std::char_traits<char>, std::allocator<char> > > >, std::less<std::__cxx11::basic_string<char, std::char_traits<char>, std::allocator<char> > >, std::allocator<std::pair<std::__cxx11::basic_string<char, std::char_traits<char>, std::allocator<char> > const, std::__cxx11::basic_string<char, std::char_traits<char>, std::allocator<char> > > > >::_S_right(std::_Rb_tree_node_base*)
FUNC 181fd 16 0 std::_Rb_tree<std::__cxx11::basic_string<char, std::char_traits<char>, std::allocator<char> >, std::pair<std::__cxx11::basic_string<char, std::char_traits<char>, std::allocator<char> > const, std::__cxx11::basic_string<char, std::char_traits<char>, std::allocator<char> > >, std::_Select1st<std::pair<std::__cxx11::basic_string<char, std::char_traits<char>, std::allocator<char> > const, std::__cxx11::basic_string<char, std::char_traits<char>, std::allocator<char> > > >, std::less<std::__cxx11::basic_string<char, std::char_traits<char>, std::allocator<char> > >, std::allocator<std::pair<std::__cxx11::basic_string<char, std::char_traits<char>, std::allocator<char> > const, std::__cxx11::basic_string<char, std::char_traits<char>, std::allocator<char> > > > >::_S_left(std::_Rb_tree_node_base*)
FUNC 18214 3d 0 std::_Rb_tree<std::__cxx11::basic_string<char, std::char_traits<char>, std::allocator<char> >, std::pair<std::__cxx11::basic_string<char, std::char_traits<char>, std::allocator<char> > const, std::__cxx11::basic_string<char, std::char_traits<char>, std::allocator<char> > >, std::_Select1st<std::pair<std::__cxx11::basic_string<char, std::char_traits<char>, std::allocator<char> > const, std::__cxx11::basic_string<char, std::char_traits<char>, std::allocator<char> > > >, std::less<std::__cxx11::basic_string<char, std::char_traits<char>, std::allocator<char> > >, std::allocator<std::pair<std::__cxx11::basic_string<char, std::char_traits<char>, std::allocator<char> > const, std::__cxx11::basic_string<char, std::char_traits<char>, std::allocator<char> > > > >::_M_drop_node(std::_Rb_tree_node<std::pair<std::__cxx11::basic_string<char, std::char_traits<char>, std::allocator<char> > const, std::__cxx11::basic_string<char, std::char_traits<char>, std::allocator<char> > > >*)
FUNC 18252 16 0 std::_Rb_tree<std::__cxx11::basic_string<char, std::char_traits<char>, std::allocator<char> >, std::pair<std::__cxx11::basic_string<char, std::char_traits<char>, std::allocator<char> > const, std::__cxx11::basic_string<char, std::char_traits<char>, std::allocator<char> > >, std::_Select1st<std::pair<std::__cxx11::basic_string<char, std::char_traits<char>, std::allocator<char> > const, std::__cxx11::basic_string<char, std::char_traits<char>, std::allocator<char> > > >, std::less<std::__cxx11::basic_string<char, std::char_traits<char>, std::allocator<char> > >, std::allocator<std::pair<std::__cxx11::basic_string<char, std::char_traits<char>, std::allocator<char> > const, std::__cxx11::basic_string<char, std::char_traits<char>, std::allocator<char> > > > >::_M_mbegin() const
FUNC 18268 45 0 std::_Vector_base<std::__cxx11::basic_string<char, std::char_traits<char>, std::allocator<char> >, std::allocator<std::__cxx11::basic_string<char, std::char_traits<char>, std::allocator<char> > > >::_Vector_impl::_Vector_impl(std::allocator<std::__cxx11::basic_string<char, std::char_traits<char>, std::allocator<char> > > const&)
FUNC 182ae 52 0 std::_Vector_base<std::__cxx11::basic_string<char, std::char_traits<char>, std::allocator<char> >, std::allocator<std::__cxx11::basic_string<char, std::char_traits<char>, std::allocator<char> > > >::_M_deallocate(std::__cxx11::basic_string<char, std::char_traits<char>, std::allocator<char> >*, unsigned long)
FUNC 18300 a3 0 std::vector<std::__cxx11::basic_string<char, std::char_traits<char>, std::allocator<char> >, std::allocator<std::__cxx11::basic_string<char, std::char_traits<char>, std::allocator<char> > > >::_S_check_init_len(unsigned long, std::allocator<std::__cxx11::basic_string<char, std::char_traits<char>, std::allocator<char> > > const&)
FUNC 183a4 4d 0 std::_Vector_base<std::__cxx11::basic_string<char, std::char_traits<char>, std::allocator<char> >, std::allocator<std::__cxx11::basic_string<char, std::char_traits<char>, std::allocator<char> > > >::_M_allocate(unsigned long)
FUNC 183f1 35 0 std::__cxx11::basic_string<char, std::char_traits<char>, std::allocator<char> >* std::__uninitialized_copy_a<char const* const*, std::__cxx11::basic_string<char, std::char_traits<char>, std::allocator<char> >*, std::__cxx11::basic_string<char, std::char_traits<char>, std::allocator<char> > >(char const* const*, char const* const*, std::__cxx11::basic_string<char, std::char_traits<char>, std::allocator<char> >*, std::allocator<std::__cxx11::basic_string<char, std::char_traits<char>, std::allocator<char> > >&)
FUNC 18426 2a 0 void std::_Destroy<std::__cxx11::basic_string<char, std::char_traits<char>, std::allocator<char> >*>(std::__cxx11::basic_string<char, std::char_traits<char>, std::allocator<char> >*, std::__cxx11::basic_string<char, std::char_traits<char>, std::allocator<char> >*)
FUNC 18450 12 0 std::remove_reference<QTypedArrayData<char16_t>*&>::type&& std::move<QTypedArrayData<char16_t>*&>(QTypedArrayData<char16_t>*&)
FUNC 18462 12 0 std::remove_reference<char16_t*&>::type&& std::move<char16_t*&>(char16_t*&)
FUNC 18474 2a 0 void std::_Destroy<QString*>(QString*, QString*)
FUNC 1849e 63 0 unsigned long std::allocator_traits<fmt::v11::detail::allocator<char> >::_S_max_size<fmt::v11::detail::allocator<char> const>(fmt::v11::detail::allocator<char> const&, ...)
FUNC 18501 1e 0 std::filesystem::__cxx11::path::_List::_Impl*& std::__get_helper<0ul, std::filesystem::__cxx11::path::_List::_Impl*, std::filesystem::__cxx11::path::_List::_Impl_deleter>(std::_Tuple_impl<0ul, std::filesystem::__cxx11::path::_List::_Impl*, std::filesystem::__cxx11::path::_List::_Impl_deleter>&)
FUNC 1851f 1e 0 std::filesystem::__cxx11::path::_List::_Impl_deleter& std::__get_helper<1ul, std::filesystem::__cxx11::path::_List::_Impl_deleter>(std::_Tuple_impl<1ul, std::filesystem::__cxx11::path::_List::_Impl_deleter>&)
FUNC 1853e 3d 0 QArrayDataPointer<QString>::needsDetach() const
FUNC 1857c 304 0 QArrayDataPointer<QString>::reallocateAndGrow(QArrayData::GrowthPosition, long long, QArrayDataPointer<QString>*)
FUNC 18880 12 0 fmt::v11::detail::buffer<char>& fmt::v11::detail::get_buffer<char, fmt::v11::basic_appender<char>, 0>(fmt::v11::basic_appender<char>)
FUNC 18892 8 0 fmt::v11::basic_appender<char> fmt::v11::detail::get_iterator<char, fmt::v11::basic_appender<char> >(fmt::v11::detail::buffer<char>&, fmt::v11::basic_appender<char>)
FUNC 1889a 12 0 std::remove_reference<std::allocator<std::_Rb_tree_node<std::pair<std::__cxx11::basic_string<char, std::char_traits<char>, std::allocator<char> > const, std::__cxx11::basic_string<char, std::char_traits<char>, std::allocator<char> > > > >&>::type&& std::move<std::allocator<std::_Rb_tree_node<std::pair<std::__cxx11::basic_string<char, std::char_traits<char>, std::allocator<char> > const, std::__cxx11::basic_string<char, std::char_traits<char>, std::allocator<char> > > > >&>(std::allocator<std::_Rb_tree_node<std::pair<std::__cxx11::basic_string<char, std::char_traits<char>, std::allocator<char> > const, std::__cxx11::basic_string<char, std::char_traits<char>, std::allocator<char> > > > >&)
FUNC 188ac 13 0 std::_Rb_tree_key_compare<std::less<std::__cxx11::basic_string<char, std::char_traits<char>, std::allocator<char> > > >::_Rb_tree_key_compare(std::less<std::__cxx11::basic_string<char, std::char_traits<char>, std::allocator<char> > > const&)
FUNC 188c0 1e 0 std::_Rb_tree_iterator<std::pair<std::__cxx11::basic_string<char, std::char_traits<char>, std::allocator<char> > const, std::__cxx11::basic_string<char, std::char_traits<char>, std::allocator<char> > > >::_Rb_tree_iterator(std::_Rb_tree_node_base*)
FUNC 188de 3a8 0 std::_Rb_tree<std::__cxx11::basic_string<char, std::char_traits<char>, std::allocator<char> >, std::pair<std::__cxx11::basic_string<char, std::char_traits<char>, std::allocator<char> > const, std::__cxx11::basic_string<char, std::char_traits<char>, std::allocator<char> > >, std::_Select1st<std::pair<std::__cxx11::basic_string<char, std::char_traits<char>, std::allocator<char> > const, std::__cxx11::basic_string<char, std::char_traits<char>, std::allocator<char> > > >, std::less<std::__cxx11::basic_string<char, std::char_traits<char>, std::allocator<char> > >, std::allocator<std::pair<std::__cxx11::basic_string<char, std::char_traits<char>, std::allocator<char> > const, std::__cxx11::basic_string<char, std::char_traits<char>, std::allocator<char> > > > >::_M_get_insert_hint_unique_pos(std::_Rb_tree_const_iterator<std::pair<std::__cxx11::basic_string<char, std::char_traits<char>, std::allocator<char> > const, std::__cxx11::basic_string<char, std::char_traits<char>, std::allocator<char> > > >, std::__cxx11::basic_string<char, std::char_traits<char>, std::allocator<char> > const&)
FUNC 18c86 16 0 std::_Select1st<std::pair<std::__cxx11::basic_string<char, std::char_traits<char>, std::allocator<char> > const, std::__cxx11::basic_string<char, std::char_traits<char>, std::allocator<char> > > >::operator()(std::pair<std::__cxx11::basic_string<char, std::char_traits<char>, std::allocator<char> > const, std::__cxx11::basic_string<char, std::char_traits<char>, std::allocator<char> > > const&) const
FUNC 18c9c 12 0 std::pair<std::__cxx11::basic_string<char, std::char_traits<char>, std::allocator<char> > const, std::__cxx11::basic_string<char, std::char_traits<char>, std::allocator<char> > > const& std::forward<std::pair<std::__cxx11::basic_string<char, std::char_traits<char>, std::allocator<char> > const, std::__cxx11::basic_string<char, std::char_traits<char>, std::allocator<char> > > const&>(std::remove_reference<std::pair<std::__cxx11::basic_string<char, std::char_traits<char>, std::allocator<char> > const, std::__cxx11::basic_string<char, std::char_traits<char>, std::allocator<char> > > const&>::type&)
FUNC 18cae 117 0 std::_Rb_tree_iterator<std::pair<std::__cxx11::basic_string<char, std::char_traits<char>, std::allocator<char> > const, std::__cxx11::basic_string<char, std::char_traits<char>, std::allocator<char> > > > std::_Rb_tree<std::__cxx11::basic_string<char, std::char_traits<char>, std::allocator<char> >, std::pair<std::__cxx11::basic_string<char, std::char_traits<char>, std::allocator<char> > const, std::__cxx11::basic_string<char, std::char_traits<char>, std::allocator<char> > >, std::_Select1st<std::pair<std::__cxx11::basic_string<char, std::char_traits<char>, std::allocator<char> > const, std::__cxx11::basic_string<char, std::char_traits<char>, std::allocator<char> > > >, std::less<std::__cxx11::basic_string<char, std::char_traits<char>, std::allocator<char> > >, std::allocator<std::pair<std::__cxx11::basic_string<char, std::char_traits<char>, std::allocator<char> > const, std::__cxx11::basic_string<char, std::char_traits<char>, std::allocator<char> > > > >::_M_insert_<std::pair<std::__cxx11::basic_string<char, std::char_traits<char>, std::allocator<char> > const, std::__cxx11::basic_string<char, std::char_traits<char>, std::allocator<char> > > const&, std::_Rb_tree<std::__cxx11::basic_string<char, std::char_traits<char>, std::allocator<char> >, std::pair<std::__cxx11::basic_string<char, std::char_traits<char>, std::allocator<char> > const, std::__cxx11::basic_string<char, std::char_traits<char>, std::allocator<char> > >, std::_Select1st<std::pair<std::__cxx11::basic_string<char, std::char_traits<char>, std::allocator<char> > const, std::__cxx11::basic_string<char, std::char_traits<char>, std::allocator<char> > > >, std::less<std::__cxx11::basic_string<char, std::char_traits<char>, std::allocator<char> > >, std::allocator<std::pair<std::__cxx11::basic_string<char, std::char_traits<char>, std::allocator<char> > const, std::__cxx11::basic_string<char, std::char_traits<char>, std::allocator<char> > > > >::_Alloc_node>(std::_Rb_tree_node_base*, std::_Rb_tree_node_base*, std::pair<std::__cxx11::basic_string<char, std::char_traits<char>, std::allocator<char> > const, std::__cxx11::basic_string<char, std::char_traits<char>, std::allocator<char> > > const&, std::_Rb_tree<std::__cxx11::basic_string<char, std::char_traits<char>, std::allocator<char> >, std::pair<std::__cxx11::basic_string<char, std::char_traits<char>, std::allocator<char> > const, std::__cxx11::basic_string<char, std::char_traits<char>, std::allocator<char> > >, std::_Select1st<std::pair<std::__cxx11::basic_string<char, std::char_traits<char>, std::allocator<char> > const, std::__cxx11::basic_string<char, std::char_traits<char>, std::allocator<char> > > >, std::less<std::__cxx11::basic_string<char, std::char_traits<char>, std::allocator<char> > >, std::allocator<std::pair<std::__cxx11::basic_string<char, std::char_traits<char>, std::allocator<char> > const, std::__cxx11::basic_string<char, std::char_traits<char>, std::allocator<char> > > > >::_Alloc_node&)
FUNC 18dc6 5d 0 std::_Rb_tree<std::__cxx11::basic_string<char, std::char_traits<char>, std::allocator<char> >, std::pair<std::__cxx11::basic_string<char, std::char_traits<char>, std::allocator<char> > const, std::__cxx11::basic_string<char, std::char_traits<char>, std::allocator<char> > >, std::_Select1st<std::pair<std::__cxx11::basic_string<char, std::char_traits<char>, std::allocator<char> > const, std::__cxx11::basic_string<char, std::char_traits<char>, std::allocator<char> > > >, std::less<std::__cxx11::basic_string<char, std::char_traits<char>, std::allocator<char> > >, std::allocator<std::pair<std::__cxx11::basic_string<char, std::char_traits<char>, std::allocator<char> > const, std::__cxx11::basic_string<char, std::char_traits<char>, std::allocator<char> > > > >::_M_destroy_node(std::_Rb_tree_node<std::pair<std::__cxx11::basic_string<char, std::char_traits<char>, std::allocator<char> > const, std::__cxx11::basic_string<char, std::char_traits<char>, std::allocator<char> > > >*)
FUNC 18e24 4f 0 std::_Rb_tree<std::__cxx11::basic_string<char, std::char_traits<char>, std::allocator<char> >, std::pair<std::__cxx11::basic_string<char, std::char_traits<char>, std::allocator<char> > const, std::__cxx11::basic_string<char, std::char_traits<char>, std::allocator<char> > >, std::_Select1st<std::pair<std::__cxx11::basic_string<char, std::char_traits<char>, std::allocator<char> > const, std::__cxx11::basic_string<char, std::char_traits<char>, std::allocator<char> > > >, std::less<std::__cxx11::basic_string<char, std::char_traits<char>, std::allocator<char> > >, std::allocator<std::pair<std::__cxx11::basic_string<char, std::char_traits<char>, std::allocator<char> > const, std::__cxx11::basic_string<char, std::char_traits<char>, std::allocator<char> > > > >::_M_put_node(std::_Rb_tree_node<std::pair<std::__cxx11::basic_string<char, std::char_traits<char>, std::allocator<char> > const, std::__cxx11::basic_string<char, std::char_traits<char>, std::allocator<char> > > >*)
FUNC 18e74 32 0 std::_Vector_base<std::__cxx11::basic_string<char, std::char_traits<char>, std::allocator<char> >, std::allocator<std::__cxx11::basic_string<char, std::char_traits<char>, std::allocator<char> > > >::_Vector_impl_data::_Vector_impl_data()
FUNC 18ea6 81 0 std::vector<std::__cxx11::basic_string<char, std::char_traits<char>, std::allocator<char> >, std::allocator<std::__cxx11::basic_string<char, std::char_traits<char>, std::allocator<char> > > >::_S_max_size(std::allocator<std::__cxx11::basic_string<char, std::char_traits<char>, std::allocator<char> > > const&)
FUNC 18f27 39 0 std::__cxx11::basic_string<char, std::char_traits<char>, std::allocator<char> >* std::uninitialized_copy<char const* const*, std::__cxx11::basic_string<char, std::char_traits<char>, std::allocator<char> >*>(char const* const*, char const* const*, std::__cxx11::basic_string<char, std::char_traits<char>, std::allocator<char> >*)
FUNC 18f60 3d 0 void std::_Destroy_aux<false>::__destroy<std::__cxx11::basic_string<char, std::char_traits<char>, std::allocator<char> >*>(std::__cxx11::basic_string<char, std::char_traits<char>, std::allocator<char> >*, std::__cxx11::basic_string<char, std::char_traits<char>, std::allocator<char> >*)
FUNC 18f9d 3d 0 void std::_Destroy_aux<false>::__destroy<QString*>(QString*, QString*)
FUNC 18fda 1e 0 std::_Tuple_impl<0ul, std::filesystem::__cxx11::path::_List::_Impl*, std::filesystem::__cxx11::path::_List::_Impl_deleter>::_M_head(std::_Tuple_impl<0ul, std::filesystem::__cxx11::path::_List::_Impl*, std::filesystem::__cxx11::path::_List::_Impl_deleter>&)
FUNC 18ff8 1e 0 std::_Tuple_impl<1ul, std::filesystem::__cxx11::path::_List::_Impl_deleter>::_M_head(std::_Tuple_impl<1ul, std::filesystem::__cxx11::path::_List::_Impl_deleter>&)
FUNC 19016 34 0 QArrayDataPointer<QString>::constAllocatedCapacity() const
FUNC 1904a 5c 0 QArrayDataPointer<QString>::freeSpaceAtEnd() const
FUNC 190a6 8c 0 QtPrivate::QMovableArrayOps<QString>::reallocate(long long, QArrayData::AllocationOption)
FUNC 19132 26 0 std::tuple_element<0ul, std::pair<QTypedArrayData<QString>*, QString*> >::type&& std::get<0ul, QTypedArrayData<QString>*, QString*>(std::pair<QTypedArrayData<QString>*, QString*>&&)
FUNC 19158 12 0 std::remove_reference<std::pair<QTypedArrayData<QString>*, QString*>&>::type&& std::move<std::pair<QTypedArrayData<QString>*, QString*>&>(std::pair<QTypedArrayData<QString>*, QString*>&)
FUNC 1916a 1e 0 QTypedArrayData<QString>*&& std::__pair_get<0ul>::__move_get<QTypedArrayData<QString>*, QString*>(std::pair<QTypedArrayData<QString>*, QString*>&&)
FUNC 19188 12 0 QTypedArrayData<QString>*&& std::forward<QTypedArrayData<QString>*>(std::remove_reference<QTypedArrayData<QString>*>::type&)
FUNC 1919a 26 0 std::tuple_element<1ul, std::pair<QTypedArrayData<QString>*, QString*> >::type&& std::get<1ul, QTypedArrayData<QString>*, QString*>(std::pair<QTypedArrayData<QString>*, QString*>&&)
FUNC 191c0 22 0 QString*&& std::__pair_get<1ul>::__move_get<QTypedArrayData<QString>*, QString*>(std::pair<QTypedArrayData<QString>*, QString*>&&)
FUNC 191e2 12 0 QString*&& std::forward<QString*>(std::remove_reference<QString*>::type&)
FUNC 191f4 226 0 QArrayDataPointer<QString>::allocateGrow(QArrayDataPointer<QString> const&, long long, QArrayData::GrowthPosition)
FUNC 1941a 5e 0 QArrayDataPointer<QString>::freeSpaceAtBegin() const
FUNC 19478 18c 0 QtPrivate::QGenericArrayOps<QString>::copyAppend(QString const*, QString const*)
FUNC 19604 198 0 QtPrivate::QGenericArrayOps<QString>::moveAppend(QString*, QString*)
FUNC 1979c 60 0 QArrayDataPointer<QString>::swap(QArrayDataPointer<QString>&)
FUNC 197fc 8 0 fmt::v11::detail::get_container<fmt::v11::basic_appender<char> >(fmt::v11::basic_appender<char>)::accessor::accessor(fmt::v11::basic_appender<char>)
FUNC 19804 41 0 fmt::v11::basic_appender<char>::container_type& fmt::v11::detail::get_container<fmt::v11::basic_appender<char> >(fmt::v11::basic_appender<char>)
FUNC 19846 4f 0 std::_Rb_tree_const_iterator<std::pair<std::__cxx11::basic_string<char, std::char_traits<char>, std::allocator<char> > const, std::__cxx11::basic_string<char, std::char_traits<char>, std::allocator<char> > > >::_M_const_cast() const
FUNC 19896 16 0 std::_Rb_tree<std::__cxx11::basic_string<char, std::char_traits<char>, std::allocator<char> >, std::pair<std::__cxx11::basic_string<char, std::char_traits<char>, std::allocator<char> > const, std::__cxx11::basic_string<char, std::char_traits<char>, std::allocator<char> > >, std::_Select1st<std::pair<std::__cxx11::basic_string<char, std::char_traits<char>, std::allocator<char> > const, std::__cxx11::basic_string<char, std::char_traits<char>, std::allocator<char> > > >, std::less<std::__cxx11::basic_string<char, std::char_traits<char>, std::allocator<char> > >, std::allocator<std::pair<std::__cxx11::basic_string<char, std::char_traits<char>, std::allocator<char> > const, std::__cxx11::basic_string<char, std::char_traits<char>, std::allocator<char> > > > >::_M_end()
FUNC 198ac 16 0 std::_Rb_tree<std::__cxx11::basic_string<char, std::char_traits<char>, std::allocator<char> >, std::pair<std::__cxx11::basic_string<char, std::char_traits<char>, std::allocator<char> > const, std::__cxx11::basic_string<char, std::char_traits<char>, std::allocator<char> > >, std::_Select1st<std::pair<std::__cxx11::basic_string<char, std::char_traits<char>, std::allocator<char> > const, std::__cxx11::basic_string<char, std::char_traits<char>, std::allocator<char> > > >, std::less<std::__cxx11::basic_string<char, std::char_traits<char>, std::allocator<char> > >, std::allocator<std::pair<std::__cxx11::basic_string<char, std::char_traits<char>, std::allocator<char> > const, std::__cxx11::basic_string<char, std::char_traits<char>, std::allocator<char> > > > >::size() const
FUNC 198c2 16 0 std::_Rb_tree<std::__cxx11::basic_string<char, std::char_traits<char>, std::allocator<char> >, std::pair<std::__cxx11::basic_string<char, std::char_traits<char>, std::allocator<char> > const, std::__cxx11::basic_string<char, std::char_traits<char>, std::allocator<char> > >, std::_Select1st<std::pair<std::__cxx11::basic_string<char, std::char_traits<char>, std::allocator<char> > const, std::__cxx11::basic_string<char, std::char_traits<char>, std::allocator<char> > > >, std::less<std::__cxx11::basic_string<char, std::char_traits<char>, std::allocator<char> > >, std::allocator<std::pair<std::__cxx11::basic_string<char, std::char_traits<char>, std::allocator<char> > const, std::__cxx11::basic_string<char, std::char_traits<char>, std::allocator<char> > > > >::_M_rightmost()
FUNC 198d8 1e 0 std::_Rb_tree<std::__cxx11::basic_string<char, std::char_traits<char>, std::allocator<char> >, std::pair<std::__cxx11::basic_string<char, std::char_traits<char>, std::allocator<char> > const, std::__cxx11::basic_string<char, std::char_traits<char>, std::allocator<char> > >, std::_Select1st<std::pair<std::__cxx11::basic_string<char, std::char_traits<char>, std::allocator<char> > const, std::__cxx11::basic_string<char, std::char_traits<char>, std::allocator<char> > > >, std::less<std::__cxx11::basic_string<char, std::char_traits<char>, std::allocator<char> > >, std::allocator<std::pair<std::__cxx11::basic_string<char, std::char_traits<char>, std::allocator<char> > const, std::__cxx11::basic_string<char, std::char_traits<char>, std::allocator<char> > > > >::_S_key(std::_Rb_tree_node_base const*)
FUNC 198f6 2d 0 std::less<std::__cxx11::basic_string<char, std::char_traits<char>, std::allocator<char> > >::operator()(std::__cxx11::basic_string<char, std::char_traits<char>, std::allocator<char> > const&, std::__cxx11::basic_string<char, std::char_traits<char>, std::allocator<char> > const&) const
FUNC 19924 34 0 std::pair<std::_Rb_tree_node_base*, std::_Rb_tree_node_base*>::pair<std::_Rb_tree_node_base*, std::_Rb_tree_node_base*, true>(std::_Rb_tree_node_base* const&, std::_Rb_tree_node_base* const&)
FUNC 19958 19c 0 std::_Rb_tree<std::__cxx11::basic_string<char, std::char_traits<char>, std::allocator<char> >, std::pair<std::__cxx11::basic_string<char, std::char_traits<char>, std::allocator<char> > const, std::__cxx11::basic_string<char, std::char_traits<char>, std::allocator<char> > >, std::_Select1st<std::pair<std::__cxx11::basic_string<char, std::char_traits<char>, std::allocator<char> > const, std::__cxx11::basic_string<char, std::char_traits<char>, std::allocator<char> > > >, std::less<std::__cxx11::basic_string<char, std::char_traits<char>, std::allocator<char> > >, std::allocator<std::pair<std::__cxx11::basic_string<char, std::char_traits<char>, std::allocator<char> > const, std::__cxx11::basic_string<char, std::char_traits<char>, std::allocator<char> > > > >::_M_get_insert_unique_pos(std::__cxx11::basic_string<char, std::char_traits<char>, std::allocator<char> > const&)
FUNC 19af4 16 0 std::_Rb_tree<std::__cxx11::basic_string<char, std::char_traits<char>, std::allocator<char> >, std::pair<std::__cxx11::basic_string<char, std::char_traits<char>, std::allocator<char> > const, std::__cxx11::basic_string<char, std::char_traits<char>, std::allocator<char> > >, std::_Select1st<std::pair<std::__cxx11::basic_string<char, std::char_traits<char>, std::allocator<char> > const, std::__cxx11::basic_string<char, std::char_traits<char>, std::allocator<char> > > >, std::less<std::__cxx11::basic_string<char, std::char_traits<char>, std::allocator<char> > >, std::allocator<std::pair<std::__cxx11::basic_string<char, std::char_traits<char>, std::allocator<char> > const, std::__cxx11::basic_string<char, std::char_traits<char>, std::allocator<char> > > > >::_M_leftmost()
FUNC 19b0a 48 0 std::pair<std::_Rb_tree_node_base*, std::_Rb_tree_node_base*>::pair<std::_Rb_tree_node_base*&, std::_Rb_tree_node_base*&, true>(std::_Rb_tree_node_base*&, std::_Rb_tree_node_base*&)
FUNC 19b52 2c 0 std::_Rb_tree_iterator<std::pair<std::__cxx11::basic_string<char, std::char_traits<char>, std::allocator<char> > const, std::__cxx11::basic_string<char, std::char_traits<char>, std::allocator<char> > > >::operator--()
FUNC 19b7e 2c 0 std::_Rb_tree_iterator<std::pair<std::__cxx11::basic_string<char, std::char_traits<char>, std::allocator<char> > const, std::__cxx11::basic_string<char, std::char_traits<char>, std::allocator<char> > > >::operator++()
FUNC 19baa 39 0 std::_Rb_tree_node<std::pair<std::__cxx11::basic_string<char, std::char_traits<char>, std::allocator<char> > const, std::__cxx11::basic_string<char, std::char_traits<char>, std::allocator<char> > > >* std::_Rb_tree<std::__cxx11::basic_string<char, std::char_traits<char>, std::allocator<char> >, std::pair<std::__cxx11::basic_string<char, std::char_traits<char>, std::allocator<char> > const, std::__cxx11::basic_string<char, std::char_traits<char>, std::allocator<char> > >, std::_Select1st<std::pair<std::__cxx11::basic_string<char, std::char_traits<char>, std::allocator<char> > const, std::__cxx11::basic_string<char, std::char_traits<char>, std::allocator<char> > > >, std::less<std::__cxx11::basic_string<char, std::char_traits<char>, std::allocator<char> > >, std::allocator<std::pair<std::__cxx11::basic_string<char, std::char_traits<char>, std::allocator<char> > const, std::__cxx11::basic_string<char, std::char_traits<char>, std::allocator<char> > > > >::_Alloc_node::operator()<std::pair<std::__cxx11::basic_string<char, std::char_traits<char>, std::allocator<char> > const, std::__cxx11::basic_string<char, std::char_traits<char>, std::allocator<char> > > const&>(std::pair<std::__cxx11::basic_string<char, std::char_traits<char>, std::allocator<char> > const, std::__cxx11::basic_string<char, std::char_traits<char>, std::allocator<char> > > const&) const
FUNC 19be4 12 0 std::_Rb_tree<std::__cxx11::basic_string<char, std::char_traits<char>, std::allocator<char> >, std::pair<std::__cxx11::basic_string<char, std::char_traits<char>, std::allocator<char> > const, std::__cxx11::basic_string<char, std::char_traits<char>, std::allocator<char> > >, std::_Select1st<std::pair<std::__cxx11::basic_string<char, std::char_traits<char>, std::allocator<char> > const, std::__cxx11::basic_string<char, std::char_traits<char>, std::allocator<char> > > >, std::less<std::__cxx11::basic_string<char, std::char_traits<char>, std::allocator<char> > >, std::allocator<std::pair<std::__cxx11::basic_string<char, std::char_traits<char>, std::allocator<char> > const, std::__cxx11::basic_string<char, std::char_traits<char>, std::allocator<char> > > > >::_M_get_Node_allocator()
FUNC 19bf6 22 0 std::_Rb_tree_node<std::pair<std::__cxx11::basic_string<char, std::char_traits<char>, std::allocator<char> > const, std::__cxx11::basic_string<char, std::char_traits<char>, std::allocator<char> > > >::_M_valptr()
FUNC 19c18 34 0 std::__new_allocator<std::__cxx11::basic_string<char, std::char_traits<char>, std::allocator<char> > >::deallocate(std::__cxx11::basic_string<char, std::char_traits<char>, std::allocator<char> >*, unsigned long)
FUNC 19c4c 6b 0 std::__new_allocator<std::__cxx11::basic_string<char, std::char_traits<char>, std::allocator<char> > >::allocate(unsigned long, void const*)
FUNC 19cb7 31 0 std::__cxx11::basic_string<char, std::char_traits<char>, std::allocator<char> >* std::__uninitialized_copy<false>::__uninit_copy<char const* const*, std::__cxx11::basic_string<char, std::char_traits<char>, std::allocator<char> >*>(char const* const*, char const* const*, std::__cxx11::basic_string<char, std::char_traits<char>, std::allocator<char> >*)
FUNC 19ce8 1f 0 void std::_Destroy<std::__cxx11::basic_string<char, std::char_traits<char>, std::allocator<char> > >(std::__cxx11::basic_string<char, std::char_traits<char>, std::allocator<char> >*)
FUNC 19d07 12 0 QString* std::__addressof<QString>(QString&)
FUNC 19d19 1f 0 void std::_Destroy<QString>(QString*)
FUNC 19d38 12 0 std::_Head_base<0ul, std::filesystem::__cxx11::path::_List::_Impl*, false>::_M_head(std::_Head_base<0ul, std::filesystem::__cxx11::path::_List::_Impl*, false>&)
FUNC 19d4a 12 0 std::_Head_base<1ul, std::filesystem::__cxx11::path::_List::_Impl_deleter, true>::_M_head(std::_Head_base<1ul, std::filesystem::__cxx11::path::_List::_Impl_deleter, true>&)
FUNC 19d5c 99 0 QTypedArrayData<QString>::reallocateUnaligned(QTypedArrayData<QString>*, QString*, long long, QArrayData::AllocationOption)
FUNC 19df6 41 0 QArrayDataPointer<QString>::detachCapacity(long long) const
FUNC 19e37 8e 0 QTypedArrayData<QString>::allocate(long long, QArrayData::AllocationOption)
FUNC 19ec6 3e 0 QArrayDataPointer<QString>::QArrayDataPointer(QTypedArrayData<QString>*, QString*, long long)
FUNC 19f04 3d 0 QTypeTraits::detail::Promoted<int, long long, std::enable_if<(((((((is_arithmetic_v<int>)&&(is_arithmetic_v<long long>))&&((is_floating_point_v<int>)==(is_floating_point_v<long long>)))&&((is_signed_v<int>)==(is_signed_v<long long>)))&&(!(is_same_v<int, bool>)))&&(!(is_same_v<long long, bool>)))&&(!(is_same_v<int, char>)))&&(!(is_same_v<long long, char>)), void>::type>::type qMax<int, long long>(int const&, long long const&)
FUNC 19f42 64 0 QArrayDataPointer<QString>::flags() const
FUNC 19fa6 6d 0 QTypedArrayData<QString>::dataStart(QArrayData*, long long)
FUNC 1a014 1b 0 QArrayDataPointer<QString>::isMutable() const
FUNC 1a030 3d 0 QArrayDataPointer<QString>::isShared() const
FUNC 1a06d 37 0 void qt_ptr_swap<QTypedArrayData<QString> >(QTypedArrayData<QString>*&, QTypedArrayData<QString>*&)
FUNC 1a0a4 37 0 void qt_ptr_swap<QString>(QString*&, QString*&)
FUNC 1a0db 53 0 std::_Rb_tree<std::__cxx11::basic_string<char, std::char_traits<char>, std::allocator<char> >, std::pair<std::__cxx11::basic_string<char, std::char_traits<char>, std::allocator<char> > const, std::__cxx11::basic_string<char, std::char_traits<char>, std::allocator<char> > >, std::_Select1st<std::pair<std::__cxx11::basic_string<char, std::char_traits<char>, std::allocator<char> > const, std::__cxx11::basic_string<char, std::char_traits<char>, std::allocator<char> > > >, std::less<std::__cxx11::basic_string<char, std::char_traits<char>, std::allocator<char> > >, std::allocator<std::pair<std::__cxx11::basic_string<char, std::char_traits<char>, std::allocator<char> > const, std::__cxx11::basic_string<char, std::char_traits<char>, std::allocator<char> > > > >::_S_key(std::_Rb_tree_node<std::pair<std::__cxx11::basic_string<char, std::char_traits<char>, std::allocator<char> > const, std::__cxx11::basic_string<char, std::char_traits<char>, std::allocator<char> > > > const*)
FUNC 1a12e 2c 0 bool std::operator< <char, std::char_traits<char>, std::allocator<char> >(std::__cxx11::basic_string<char, std::char_traits<char>, std::allocator<char> > const&, std::__cxx11::basic_string<char, std::char_traits<char>, std::allocator<char> > const&)
FUNC 1a15a 50 0 std::_Rb_tree<std::__cxx11::basic_string<char, std::char_traits<char>, std::allocator<char> >, std::pair<std::__cxx11::basic_string<char, std::char_traits<char>, std::allocator<char> > const, std::__cxx11::basic_string<char, std::char_traits<char>, std::allocator<char> > >, std::_Select1st<std::pair<std::__cxx11::basic_string<char, std::char_traits<char>, std::allocator<char> > const, std::__cxx11::basic_string<char, std::char_traits<char>, std::allocator<char> > > >, std::less<std::__cxx11::basic_string<char, std::char_traits<char>, std::allocator<char> > >, std::allocator<std::pair<std::__cxx11::basic_string<char, std::char_traits<char>, std::allocator<char> > const, std::__cxx11::basic_string<char, std::char_traits<char>, std::allocator<char> > > > >::begin()
FUNC 1a1aa 26 0 std::operator==(std::_Rb_tree_iterator<std::pair<std::__cxx11::basic_string<char, std::char_traits<char>, std::allocator<char> > const, std::__cxx11::basic_string<char, std::char_traits<char>, std::allocator<char> > > > const&, std::_Rb_tree_iterator<std::pair<std::__cxx11::basic_string<char, std::char_traits<char>, std::allocator<char> > const, std::__cxx11::basic_string<char, std::char_traits<char>, std::allocator<char> > > > const&)
FUNC 1a1d0 48 0 std::pair<std::_Rb_tree_node_base*, std::_Rb_tree_node_base*>::pair<std::_Rb_tree_node<std::pair<std::__cxx11::basic_string<char, std::char_traits<char>, std::allocator<char> > const, std::__cxx11::basic_string<char, std::char_traits<char>, std::allocator<char> > > >*&, std::_Rb_tree_node_base*&, true>(std::_Rb_tree_node<std::pair<std::__cxx11::basic_string<char, std::char_traits<char>, std::allocator<char> > const, std::__cxx11::basic_string<char, std::char_traits<char>, std::allocator<char> > > >*&, std::_Rb_tree_node_base*&)
FUNC 1a218 12 0 std::_Rb_tree_node_base*& std::forward<std::_Rb_tree_node_base*&>(std::remove_reference<std::_Rb_tree_node_base*&>::type&)
FUNC 1a22a 4c 0 std::_Rb_tree_node<std::pair<std::__cxx11::basic_string<char, std::char_traits<char>, std::allocator<char> > const, std::__cxx11::basic_string<char, std::char_traits<char>, std::allocator<char> > > >* std::_Rb_tree<std::__cxx11::basic_string<char, std::char_traits<char>, std::allocator<char> >, std::pair<std::__cxx11::basic_string<char, std::char_traits<char>, std::allocator<char> > const, std::__cxx11::basic_string<char, std::char_traits<char>, std::allocator<char> > >, std::_Select1st<std::pair<std::__cxx11::basic_string<char, std::char_traits<char>, std::allocator<char> > const, std::__cxx11::basic_string<char, std::char_traits<char>, std::allocator<char> > > >, std::less<std::__cxx11::basic_string<char, std::char_traits<char>, std::allocator<char> > >, std::allocator<std::pair<std::__cxx11::basic_string<char, std::char_traits<char>, std::allocator<char> > const, std::__cxx11::basic_string<char, std::char_traits<char>, std::allocator<char> > > > >::_M_create_node<std::pair<std::__cxx11::basic_string<char, std::char_traits<char>, std::allocator<char> > const, std::__cxx11::basic_string<char, std::char_traits<char>, std::allocator<char> > > const&>(std::pair<std::__cxx11::basic_string<char, std::char_traits<char>, std::allocator<char> > const, std::__cxx11::basic_string<char, std::char_traits<char>, std::allocator<char> > > const&)
FUNC 1a276 1e 0 __gnu_cxx::__aligned_membuf<std::pair<std::__cxx11::basic_string<char, std::char_traits<char>, std::allocator<char> > const, std::__cxx11::basic_string<char, std::char_traits<char>, std::allocator<char> > > >::_M_ptr()
FUNC 1a294 3d 0 std::__new_allocator<std::_Rb_tree_node<std::pair<std::__cxx11::basic_string<char, std::char_traits<char>, std::allocator<char> > const, std::__cxx11::basic_string<char, std::char_traits<char>, std::allocator<char> > > > >::deallocate(std::_Rb_tree_node<std::pair<std::__cxx11::basic_string<char, std::char_traits<char>, std::allocator<char> > const, std::__cxx11::basic_string<char, std::char_traits<char>, std::allocator<char> > > >*, unsigned long)
FUNC 1a2d1 9c 0 std::__cxx11::basic_string<char, std::char_traits<char>, std::allocator<char> >* std::__do_uninit_copy<char const* const*, std::__cxx11::basic_string<char, std::char_traits<char>, std::allocator<char> >*>(char const* const*, char const* const*, std::__cxx11::basic_string<char, std::char_traits<char>, std::allocator<char> >*)
FUNC 1a36e 48 0 std::pair<QTypedArrayData<QString>*, QString*>::pair<QTypedArrayData<QString>*, QString*, true>(QTypedArrayData<QString>*&&, QString*&&)
FUNC 1a3b6 22 0 std::_Rb_tree_node<std::pair<std::__cxx11::basic_string<char, std::char_traits<char>, std::allocator<char> > const, std::__cxx11::basic_string<char, std::char_traits<char>, std::allocator<char> > > >::_M_valptr() const
FUNC 1a3d8 12 0 std::_Rb_tree_node<std::pair<std::__cxx11::basic_string<char, std::char_traits<char>, std::allocator<char> > const, std::__cxx11::basic_string<char, std::char_traits<char>, std::allocator<char> > > >*& std::forward<std::_Rb_tree_node<std::pair<std::__cxx11::basic_string<char, std::char_traits<char>, std::allocator<char> > const, std::__cxx11::basic_string<char, std::char_traits<char>, std::allocator<char> > > >*&>(std::remove_reference<std::_Rb_tree_node<std::pair<std::__cxx11::basic_string<char, std::char_traits<char>, std::allocator<char> > const, std::__cxx11::basic_string<char, std::char_traits<char>, std::allocator<char> > > >*&>::type&)
FUNC 1a3ea 43 0 std::_Rb_tree<std::__cxx11::basic_string<char, std::char_traits<char>, std::allocator<char> >, std::pair<std::__cxx11::basic_string<char, std::char_traits<char>, std::allocator<char> > const, std::__cxx11::basic_string<char, std::char_traits<char>, std::allocator<char> > >, std::_Select1st<std::pair<std::__cxx11::basic_string<char, std::char_traits<char>, std::allocator<char> > const, std::__cxx11::basic_string<char, std::char_traits<char>, std::allocator<char> > > >, std::less<std::__cxx11::basic_string<char, std::char_traits<char>, std::allocator<char> > >, std::allocator<std::pair<std::__cxx11::basic_string<char, std::char_traits<char>, std::allocator<char> > const, std::__cxx11::basic_string<char, std::char_traits<char>, std::allocator<char> > > > >::_M_get_node()
FUNC 1a42e 119 0 void std::_Rb_tree<std::__cxx11::basic_string<char, std::char_traits<char>, std::allocator<char> >, std::pair<std::__cxx11::basic_string<char, std::char_traits<char>, std::allocator<char> > const, std::__cxx11::basic_string<char, std::char_traits<char>, std::allocator<char> > >, std::_Select1st<std::pair<std::__cxx11::basic_string<char, std::char_traits<char>, std::allocator<char> > const, std::__cxx11::basic_string<char, std::char_traits<char>, std::allocator<char> > > >, std::less<std::__cxx11::basic_string<char, std::char_traits<char>, std::allocator<char> > >, std::allocator<std::pair<std::__cxx11::basic_string<char, std::char_traits<char>, std::allocator<char> > const, std::__cxx11::basic_string<char, std::char_traits<char>, std::allocator<char> > > > >::_M_construct_node<std::pair<std::__cxx11::basic_string<char, std::char_traits<char>, std::allocator<char> > const, std::__cxx11::basic_string<char, std::char_traits<char>, std::allocator<char> > > const&>(std::_Rb_tree_node<std::pair<std::__cxx11::basic_string<char, std::char_traits<char>, std::allocator<char> > const, std::__cxx11::basic_string<char, std::char_traits<char>, std::allocator<char> > > >*, std::pair<std::__cxx11::basic_string<char, std::char_traits<char>, std::allocator<char> > const, std::__cxx11::basic_string<char, std::char_traits<char>, std::allocator<char> > > const&)
FUNC 1a548 12 0 __gnu_cxx::__aligned_membuf<std::pair<std::__cxx11::basic_string<char, std::char_traits<char>, std::allocator<char> > const, std::__cxx11::basic_string<char, std::char_traits<char>, std::allocator<char> > > >::_M_addr()
FUNC 1a55a e0 0 void std::_Construct<std::__cxx11::basic_string<char, std::char_traits<char>, std::allocator<char> >, char const* const&>(std::__cxx11::basic_string<char, std::char_traits<char>, std::allocator<char> >*, char const* const&)
FUNC 1a63a 1e 0 __gnu_cxx::__aligned_membuf<std::pair<std::__cxx11::basic_string<char, std::char_traits<char>, std::allocator<char> > const, std::__cxx11::basic_string<char, std::char_traits<char>, std::allocator<char> > > >::_M_ptr() const
FUNC 1a658 12 0 char const* const& std::forward<char const* const&>(std::remove_reference<char const* const&>::type&)
FUNC 1a66a 12 0 __gnu_cxx::__aligned_membuf<std::pair<std::__cxx11::basic_string<char, std::char_traits<char>, std::allocator<char> > const, std::__cxx11::basic_string<char, std::char_traits<char>, std::allocator<char> > > >::_M_addr() const
FUNC 1a67c 74 0 std::__new_allocator<std::_Rb_tree_node<std::pair<std::__cxx11::basic_string<char, std::char_traits<char>, std::allocator<char> > const, std::__cxx11::basic_string<char, std::char_traits<char>, std::allocator<char> > > > >::allocate(unsigned long, void const*)
FUNC 1a6f0 69 0 std::pair<std::__cxx11::basic_string<char, std::char_traits<char>, std::allocator<char> > const, std::__cxx11::basic_string<char, std::char_traits<char>, std::allocator<char> > >::pair(std::pair<std::__cxx11::basic_string<char, std::char_traits<char>, std::allocator<char> > const, std::__cxx11::basic_string<char, std::char_traits<char>, std::allocator<char> > > const&)
FUNC 1a75a e3 0 QQmlPrivate::indexOfOwnClassInfo
FUNC 1a83e 36e 0 MainWindow::MainWindow(QWidget*)
FUNC 1abac 61 0 MainWindow::~MainWindow()
FUNC 1ac18 2f 0 MainWindow::~MainWindow()
FUNC 1ac52 19f 0 MainWindow::setupMenus()
FUNC 1adf2 1fa 0 MainWindow::setupDocks()
FUNC 1afec 6ed 0 MainWindow::embedQmlView()
FUNC 1b6d9 3a 0 QtPrivate::lengthHelperPointer<char>
FUNC 1b714 27 0 std::atomic<int>::atomic(int)
FUNC 1b73c 27 0 QAtomicInt::QAtomicInt(int)
FUNC 1b763 f 0 q20::is_constant_evaluated()
FUNC 1b772 34 0 QtPrivate::QSlotObjectBase::QSlotObjectBase(void (*)(int, QtPrivate::QSlotObjectBase*, QObject*, void**, bool*))
FUNC 1b7a6 f 0 QtPrivate::QSlotObjectBase::~QSlotObjectBase()
FUNC 1b7b5 53 0 qstrnlen(char const*, unsigned long)
FUNC 1b808 29 0 QtPrivate::qstrnlen_helper(char const*, unsigned long)
FUNC 1b832 1c 0 QString::isEmpty() const
FUNC 1b84e 63 0 QString::operator+=(char const*)
FUNC 1b8b1 4b 0 operator+(QString&&, char const*)
FUNC 1b8fc 27 0 QBasicAtomicInteger<int>::QBasicAtomicInteger(int)
FUNC 1b924 1b 0 std::__atomic_base<int>::__atomic_base(int)
FUNC 1b940 28 0 QSize::QSize(int, int)
FUNC 1b968 19 0 QtPrivate::QFlagsStorage<Qt::WindowType>::QFlagsStorage()
FUNC 1b982 1f 0 QtPrivate::QFlagsStorageHelper<Qt::WindowType, 4>::QFlagsStorage()
FUNC 1b9a2 1f 0 QFlags<Qt::WindowType>::QFlags()
FUNC 1b9c2 63 0 QWidget::resize(int, int)
FUNC 1ba25 65 0 MainWindow::tr(char const*, char const*, int)
FUNC 1ba8a 376 0 Ui_MainWindow::setupUi(QMainWindow*)
FUNC 1be00 b7 0 Ui_MainWindow::retranslateUi(QMainWindow*)
FUNC 1beb8 151 0 spdlog::logger::log(spdlog::source_loc, spdlog::level::level_enum, fmt::v11::basic_string_view<char>)
FUNC 1c00a 19 0 QtPrivate::QFlagsStorage<Qt::AlignmentFlag>::QFlagsStorage()
FUNC 1c024 1f 0 QtPrivate::QFlagsStorageHelper<Qt::AlignmentFlag, 4>::QFlagsStorage()
FUNC 1c044 1f 0 QFlags<Qt::AlignmentFlag>::QFlags()
FUNC 1c064 27 0 QAtomicInteger<int>::QAtomicInteger(int)
FUNC 1c08c 41 0 QAnyStringView::QAnyStringView<char, true>(char const*, long long)
FUNC 1c0cd ca 0 QMetaObject::Connection QObject::connect<void (QAction::*)(bool), bool (QWidget::*)()>(QtPrivate::FunctionPointer<void (QAction::*)(bool)>::Object const*, void (QAction::*)(bool), QtPrivate::ContextTypeForFunctor<bool (QWidget::*)(), void>::ContextType const*, bool (QWidget::*&&)(), Qt::ConnectionType)
FUNC 1c197 b9 0 unsigned long QAnyStringView::encodeType<char>(char const*, long long)
FUNC 1c250 6d 0 std::enable_if<(sizeof (char))==(1), long long>::type QtPrivate::lengthHelperContainer<char, 11ul>(char const (&) [11ul])
FUNC 1c2bd 6d 0 std::enable_if<(sizeof (char))==(1), long long>::type QtPrivate::lengthHelperContainer<char, 14ul>(char const (&) [14ul])
FUNC 1c32a 6d 0 std::enable_if<(sizeof (char))==(1), long long>::type QtPrivate::lengthHelperContainer<char, 8ul>(char const (&) [8ul])
FUNC 1c397 6d 0 std::enable_if<(sizeof (char))==(1), long long>::type QtPrivate::lengthHelperContainer<char, 10ul>(char const (&) [10ul])
FUNC 1c404 11 0 QtPrivate::ConnectionTypes<QtPrivate::List<bool>, true>::types()
FUNC 1c415 12 0 bool (QWidget::*&&std::forward<bool (QWidget::*)()>(std::remove_reference<bool (QWidget::*)()>::type&))()
FUNC 1c427 41 0 QtPrivate::makeCallableObject<void (QAction::*)(bool), bool (QWidget::*)()>
FUNC 1c468 60 0 bool QAnyStringView::isAsciiOnlyCharsAtCompileTime<char const>(char const*, long long)
FUNC 1c4c8 4c 0 QtPrivate::QCallableObject<bool (QWidget::*)(), QtPrivate::List<>, void>::QCallableObject(bool (QWidget::*&&)())
FUNC 1c514 1f 0 QtPrivate::QCallableObject<bool (QWidget::*)(), QtPrivate::List<>, void>::~QCallableObject()
FUNC 1c533 100 0 QtPrivate::QCallableObject<bool (QWidget::*)(), QtPrivate::List<>, void>::impl(int, QtPrivate::QSlotObjectBase*, QObject*, void**, bool*)
FUNC 1c633 12 0 std::remove_reference<bool (QWidget::*&)()>::type&& std::move<bool (QWidget::*&)()>(bool (QWidget::*&)())
FUNC 1c646 12 0 QtPrivate::detail::StorageByValue<bool (QWidget::*)(), void>::object() &
FUNC 1c658 49 0 void QtPrivate::FunctionPointer<bool (QWidget::*)()>::call<QtPrivate::List<>, void>(bool (QWidget::*)(), QWidget*, void**)
FUNC 1c6a2 81 0 QtPrivate::FunctorCall<std::integer_sequence<unsigned long>, QtPrivate::List<>, void, bool (QWidget::*)()>::call(bool (QWidget::*)(), QWidget*, void**)::{lambda()#1}::operator()() const
FUNC 1c723 88 0 QtPrivate::FunctorCall<std::integer_sequence<unsigned long>, QtPrivate::List<>, void, bool (QWidget::*)()>::call(bool (QWidget::*)(), QWidget*, void**)
FUNC 1c7ac 41 0 QtPrivate::assertObjectType<QWidget>(QObject*)::{lambda(QObject*)#3}::operator()(QObject*) const
FUNC 1c7ed 7e 0 void QtPrivate::assertObjectType<QWidget>(QObject*)
FUNC 1c86b 2b 0 void QtPrivate::FunctorCallBase::call_internal<void, QtPrivate::FunctorCall<std::integer_sequence<unsigned long>, QtPrivate::List<>, void, bool (QWidget::*)()>::call(bool (QWidget::*)(), QWidget*, void**)::{lambda()#1}>(void**, QtPrivate::FunctorCall<std::integer_sequence<unsigned long>, QtPrivate::List<>, void, bool (QWidget::*)()>::call(bool (QWidget::*)(), QWidget*, void**)::{lambda()#1}&&)
FUNC 1c896 12 0 QtPrivate::FunctorCall<std::integer_sequence<unsigned long>, QtPrivate::List<>, void, bool (QWidget::*)()>::call(bool (QWidget::*)(), QWidget*, void**)::{lambda()#1}&& std::forward<QtPrivate::FunctorCall<std::integer_sequence<unsigned long>, QtPrivate::List<>, void, bool (QWidget::*)()>::call(bool (QWidget::*)(), QWidget*, void**)::{lambda()#1}>(std::remove_reference<QtPrivate::FunctorCall<std::integer_sequence<unsigned long>, QtPrivate::List<>, void, bool (QWidget::*)()>::call(bool (QWidget::*)(), QWidget*, void**)::{lambda()#1}>::type&)
FUNC 1c8a8 3c 0 qInitResources_qt_app_template_translations()
FUNC 1c8e4 3c 0 qCleanupResources_qt_app_template_translations()
FUNC 1c920 14 0 initializer::initializer
FUNC 1c934 18 0 initializer::~initializer
FUNC 1c94c 3d 0 __static_initialization_and_destruction_0
FUNC 1c989 f 0 _GLOBAL__sub_I_qrc_qt_app_template_translations.cpp
FUNC 1c998 3c 0 qInitResources_resources()
FUNC 1c9d4 3c 0 qCleanupResources_resources()
FUNC 1ca10 14 0 initializer::initializer
FUNC 1ca24 18 0 initializer::~initializer
FUNC 1ca3c 3d 0 __static_initialization_and_destruction_0
FUNC 1ca79 f 0 _GLOBAL__sub_I_qrc_resources.cpp
FUNC 1ca88 ae 0 Logger::instance()
FUNC 1cb36 2c1 0 Logger::log(QString const&)
FUNC 1cdf8 49 0 QAnyStringView::QAnyStringView(QString const&)
FUNC 1ce42 1d 0 QDebug::noquote()
FUNC 1ce60 36 0 Logger::Logger()
FUNC 1ce96 31 0 Logger::~Logger()
FUNC 1cec8 2f 0 Logger::~Logger()
FUNC 1cef8 20 0 QChar::QChar<char16_t, true>(char16_t)
FUNC 1cf18 41 0 QAnyStringView::QAnyStringView<QChar, true>(QChar const*, long long)
FUNC 1cf5a 85 0 QString QString::arg<QString, true>(QString const&, int, QChar) const
FUNC 1cfdf c6 0 unsigned long QAnyStringView::encodeType<QChar>(QChar const*, long long)
FUNC 1d0a5 2e 0 bool QAnyStringView::isAsciiOnlyCharsAtCompileTime<QChar const>(QChar const*, long long)
FUNC 1d0d4 6b 0 core::Log::instance()
FUNC 1d140 80f 0 core::Log::init(core::LogConfig const&)
FUNC 1d950 42 0 core::Log::set_level(spdlog::level::level_enum)
FUNC 1d992 37 0 core::Log::flush()
FUNC 1d9ca 18 0 core::Log::deinit()
FUNC 1d9e2 33 0 std::type_info::name() const
FUNC 1da16 8a 0 std::type_info::operator==(std::type_info const&) const
FUNC 1daa0 11 0 std::_Sp_make_shared_tag::_S_ti()
FUNC 1dab2 2a 0 std::atomic<bool>::atomic(bool)
FUNC 1dadc 75 0 bool std::chrono::operator< <long, std::ratio<1l, 1000000000l>, long, std::ratio<1l, 1000000000l> >(std::chrono::duration<long, std::ratio<1l, 1000000000l> > const&, std::chrono::duration<long, std::ratio<1l, 1000000000l> > const&)
FUNC 1db51 51 0 std::chrono::duration<long, std::ratio<1l, 1000000000l> >::zero()
FUNC 1dba2 f 0 std::chrono::duration_values<long>::zero()
FUNC 1dbb1 61 0 std::chrono::_V2::system_clock::to_time_t(std::chrono::time_point<std::chrono::_V2::system_clock, std::chrono::duration<long, std::ratio<1l, 1000000000l> > > const&)
FUNC 1dc12 67 0 std::chrono::_V2::system_clock::from_time_t(long)
FUNC 1dc7a 21 0 std::chrono::duration<long, std::ratio<1l, 1l> >::duration<long, void>(long const&)
FUNC 1dc9c 12 0 std::_Any_data::_M_access()
FUNC 1dcae 12 0 std::_Any_data::_M_access() const
FUNC 1dcc0 3e 0 std::_Function_base::~_Function_base()
FUNC 1dcfe 1c 0 std::_Function_base::_M_empty() const
FUNC 1dd1a 9 0 fmt::v11::basic_string_view<char>::size() const
FUNC 1dd24 1f 0 std::function<void (std::__cxx11::basic_string<char, std::char_traits<char>, std::allocator<char> > const&)>::~function()
FUNC 1dd44 1f 0 std::function<void (std::__cxx11::basic_string<char, std::char_traits<char>, std::allocator<char> > const&, _IO_FILE*)>::~function()
FUNC 1dd64 63 0 spdlog::file_event_handlers::file_event_handlers()
FUNC 1ddc8 28 0 std::_Vector_base<std::shared_ptr<spdlog::sinks::sink>, std::allocator<std::shared_ptr<spdlog::sinks::sink> > >::_Vector_impl::~_Vector_impl()
FUNC 1ddf0 1f 0 std::_Vector_base<std::shared_ptr<spdlog::sinks::sink>, std::allocator<std::shared_ptr<spdlog::sinks::sink> > >::_Vector_base()
FUNC 1de10 1f 0 std::vector<std::shared_ptr<spdlog::sinks::sink>, std::allocator<std::shared_ptr<spdlog::sinks::sink> > >::vector()
FUNC 1de30 23 0 std::__mutex_base::__mutex_base()
FUNC 1de54 1f 0 std::mutex::mutex()
FUNC 1de74 28 0 std::_Vector_base<spdlog::details::log_msg_buffer, std::allocator<spdlog::details::log_msg_buffer> >::_Vector_impl::~_Vector_impl()
FUNC 1de9c 1f 0 std::_Vector_base<spdlog::details::log_msg_buffer, std::allocator<spdlog::details::log_msg_buffer> >::_Vector_base()
FUNC 1debc 1f 0 std::vector<spdlog::details::log_msg_buffer, std::allocator<spdlog::details::log_msg_buffer> >::vector()
FUNC 1dedc 52 0 spdlog::details::circular_q<spdlog::details::log_msg_buffer>::circular_q()
FUNC 1df2e 23 0 spdlog::details::circular_q<spdlog::details::log_msg_buffer>::~circular_q()
FUNC 1df52 44 0 spdlog::details::backtracer::backtracer()
FUNC 1df96 23 0 spdlog::details::backtracer::~backtracer()
FUNC 1dfba 23 0 std::__shared_ptr<spdlog::sinks::sink, (__gnu_cxx::_Lock_policy)2>::~__shared_ptr()
FUNC 1dfde 1f 0 std::shared_ptr<spdlog::sinks::sink>::~shared_ptr()
FUNC 1dffe 65 0 spdlog::logger::~logger()
FUNC 1e064 2f 0 spdlog::logger::~logger()
FUNC 1e094 1f 0 std::_Head_base<1ul, std::__cxx11::basic_string<char, std::char_traits<char>, std::allocator<char> >, false>::~_Head_base()
FUNC 1e0b4 1f 0 std::_Tuple_impl<1ul, std::__cxx11::basic_string<char, std::char_traits<char>, std::allocator<char> > >::~_Tuple_impl()
FUNC 1e0d4 1f 0 std::_Head_base<0ul, std::__cxx11::basic_string<char, std::char_traits<char>, std::allocator<char> >, false>::~_Head_base()
FUNC 1e0f4 2f 0 std::_Tuple_impl<0ul, std::__cxx11::basic_string<char, std::char_traits<char>, std::allocator<char> >, std::__cxx11::basic_string<char, std::char_traits<char>, std::allocator<char> > >::~_Tuple_impl()
FUNC 1e124 1f 0 std::tuple<std::__cxx11::basic_string<char, std::char_traits<char>, std::allocator<char> >, std::__cxx11::basic_string<char, std::char_traits<char>, std::allocator<char> > >::~tuple()
FUNC 1e144 49 0 spdlog::sinks::daily_filename_calculator::calc_filename(std::__cxx11::basic_string<char, std::char_traits<char>, std::allocator<char> > const&, tm const&)::{lambda()#1}::operator()() const
FUNC 1e1af 2a7 0 spdlog::sinks::daily_filename_calculator::calc_filename(std::__cxx11::basic_string<char, std::char_traits<char>, std::allocator<char> > const&, tm const&)
FUNC 1e456 23 0 spdlog::details::log_msg_buffer::~log_msg_buffer()
FUNC 1e47a 23 0 std::__shared_ptr<spdlog::async_logger, (__gnu_cxx::_Lock_policy)2>::~__shared_ptr()
FUNC 1e49e 1f 0 std::shared_ptr<spdlog::async_logger>::~shared_ptr()
FUNC 1e4be 23 0 std::__shared_ptr<spdlog::details::thread_pool, (__gnu_cxx::_Lock_policy)2>::~__shared_ptr()
FUNC 1e4e2 1f 0 std::shared_ptr<spdlog::details::thread_pool>::~shared_ptr()
FUNC 1e501 fb 0 spdlog::init_thread_pool(unsigned long, unsigned long, std::function<void ()>, std::function<void ()>)
FUNC 1e5fc 1f 0 std::function<void ()>::~function()
FUNC 1e61c f 0 spdlog::init_thread_pool(unsigned long, unsigned long)::{lambda()#1}::operator()() const
FUNC 1e62c f 0 spdlog::init_thread_pool(unsigned long, unsigned long)::{lambda()#2}::operator()() const
FUNC 1e63b d5 0 spdlog::init_thread_pool(unsigned long, unsigned long)
FUNC 1e710 50 0 spdlog::thread_pool()
FUNC 1e760 1a 0 std::__shared_count<(__gnu_cxx::_Lock_policy)2>::__shared_count()
FUNC 1e77a 1f 0 core::Log::~Log()
FUNC 1e79a 23 0 std::__shared_ptr<spdlog::sinks::ansicolor_stdout_sink<spdlog::details::console_mutex>, (__gnu_cxx::_Lock_policy)2>::~__shared_ptr()
FUNC 1e7be 1f 0 std::shared_ptr<spdlog::sinks::ansicolor_stdout_sink<spdlog::details::console_mutex> >::~shared_ptr()
FUNC 1e7de 23 0 std::__shared_ptr<spdlog::sinks::daily_file_sink<std::mutex, spdlog::sinks::daily_filename_calculator>, (__gnu_cxx::_Lock_policy)2>::~__shared_ptr()
FUNC 1e802 1f 0 std::shared_ptr<spdlog::sinks::daily_file_sink<std::mutex, spdlog::sinks::daily_filename_calculator> >::~shared_ptr()
FUNC 1e822 23 0 std::__shared_ptr<spdlog::sinks::rotating_file_sink<std::mutex>, (__gnu_cxx::_Lock_policy)2>::~__shared_ptr()
FUNC 1e846 1f 0 std::shared_ptr<spdlog::sinks::rotating_file_sink<std::mutex> >::~shared_ptr()
FUNC 1e866 1a 0 std::_Sp_counted_base<(__gnu_cxx::_Lock_policy)2>::_M_get_use_count() const
FUNC 1e880 31 0 std::_Sp_counted_base<(__gnu_cxx::_Lock_policy)2>::_M_destroy()
FUNC 1e8b2 1e 0 std::__atomic_base<bool>::__atomic_base(bool)
FUNC 1e8d0 1b 0 std::__atomic_base<int>::__atomic_base(int)
FUNC 1e8eb 1e 0 std::enable_if<std::chrono::__is_duration<std::chrono::duration<long, std::ratio<1l, 1l> > >::value, std::chrono::duration<long, std::ratio<1l, 1l> > >::type std::chrono::duration_cast<std::chrono::duration<long, std::ratio<1l, 1l> >, long, std::ratio<1l, 1000000000l> >(std::chrono::duration<long, std::ratio<1l, 1000000000l> > const&)
FUNC 1e90a 15 0 std::chrono::duration<long, std::ratio<1l, 1l> >::count() const
FUNC 1e920 21 0 std::chrono::time_point<std::chrono::_V2::system_clock, std::chrono::duration<long, std::ratio<1l, 1l> > >::time_point(std::chrono::duration<long, std::ratio<1l, 1l> > const&)
FUNC 1e941 6c 0 std::enable_if<std::chrono::__is_duration<std::chrono::duration<long, std::ratio<1l, 1000000000l> > >::value, std::chrono::time_point<std::chrono::_V2::system_clock, std::chrono::duration<long, std::ratio<1l, 1000000000l> > > >::type std::chrono::time_point_cast<std::chrono::duration<long, std::ratio<1l, 1000000000l> >, std::chrono::_V2::system_clock, std::chrono::duration<long, std::ratio<1l, 1l> > >(std::chrono::time_point<std::chrono::_V2::system_clock, std::chrono::duration<long, std::ratio<1l, 1l> > > const&)
FUNC 1e9ad 2f 0 unsigned long const& std::max<unsigned long>(unsigned long const&, unsigned long const&)
FUNC 1e9dc 4d 0 std::__cxx11::basic_string<char, std::char_traits<char>, std::allocator<char> > std::operator+<char, std::char_traits<char>, std::allocator<char> >(char const*, std::__cxx11::basic_string<char, std::char_traits<char>, std::allocator<char> >&&)
FUNC 1ea2a 2e 0 std::_Function_base::_Function_base()
FUNC 1ea58 3f 0 std::function<void (std::__cxx11::basic_string<char, std::char_traits<char>, std::allocator<char> > const&)>::function(decltype(nullptr))
FUNC 1ea98 3f 0 std::function<void (std::__cxx11::basic_string<char, std::char_traits<char>, std::allocator<char> > const&, _IO_FILE*)>::function(decltype(nullptr))
FUNC 1ead8 31 0 std::_Vector_base<std::shared_ptr<spdlog::sinks::sink>, std::allocator<std::shared_ptr<spdlog::sinks::sink> > >::_Vector_impl::_Vector_impl()
FUNC 1eb0a 51 0 std::_Vector_base<std::shared_ptr<spdlog::sinks::sink>, std::allocator<std::shared_ptr<spdlog::sinks::sink> > >::~_Vector_base()
FUNC 1eb5c 5a 0 std::vector<std::shared_ptr<spdlog::sinks::sink>, std::allocator<std::shared_ptr<spdlog::sinks::sink> > >::~vector()
FUNC 1ebb6 31 0 std::_Vector_base<spdlog::details::log_msg_buffer, std::allocator<spdlog::details::log_msg_buffer> >::_Vector_impl::_Vector_impl()
FUNC 1ebe8 5c 0 std::_Vector_base<spdlog::details::log_msg_buffer, std::allocator<spdlog::details::log_msg_buffer> >::~_Vector_base()
FUNC 1ec44 5a 0 std::vector<spdlog::details::log_msg_buffer, std::allocator<spdlog::details::log_msg_buffer> >::~vector()
FUNC 1ec9e 12 0 std::remove_reference<std::shared_ptr<spdlog::sinks::sink>&>::type&& std::move<std::shared_ptr<spdlog::sinks::sink>&>(std::shared_ptr<spdlog::sinks::sink>&)
FUNC 1ecb0 37 0 std::shared_ptr<spdlog::sinks::sink>::shared_ptr(std::shared_ptr<spdlog::sinks::sink>&&)
FUNC 1ece7 35 0 std::tuple<std::__cxx11::basic_string<char, std::char_traits<char>, std::allocator<char> >&, std::__cxx11::basic_string<char, std::char_traits<char>, std::allocator<char> >&> std::tie<std::__cxx11::basic_string<char, std::char_traits<char>, std::allocator<char> >, std::__cxx11::basic_string<char, std::char_traits<char>, std::allocator<char> > >(std::__cxx11::basic_string<char, std::char_traits<char>, std::allocator<char> >&, std::__cxx11::basic_string<char, std::char_traits<char>, std::allocator<char> >&)
FUNC 1ed1c 3a 0 std::enable_if<(__assignable<std::__cxx11::basic_string<char, std::char_traits<char>, std::allocator<char> >, std::__cxx11::basic_string<char, std::char_traits<char>, std::allocator<char> > >)(), std::tuple<std::__cxx11::basic_string<char, std::char_traits<char>, std::allocator<char> >&, std::__cxx11::basic_string<char, std::char_traits<char>, std::allocator<char> >&>&>::type std::tuple<std::__cxx11::basic_string<char, std::char_traits<char>, std::allocator<char> >&, std::__cxx11::basic_string<char, std::char_traits<char>, std::allocator<char> >&>::operator=<std::__cxx11::basic_string<char, std::char_traits<char>, std::allocator<char> >, std::__cxx11::basic_string<char, std::char_traits<char>, std::allocator<char> > >(std::tuple<std::__cxx11::basic_string<char, std::char_traits<char>, std::allocator<char> >, std::__cxx11::basic_string<char, std::char_traits<char>, std::allocator<char> > >&&)
FUNC 1ed56 70 0 fmt::v11::basic_string_view<char> fmt::v11::detail::compile_string_to_view<char, 26ul>(char const (&) [26ul])
FUNC 1edc6 8 0 fmt::v11::basic_string_view<char>::data() const
FUNC 1edce 12 0 std::remove_reference<std::shared_ptr<spdlog::async_logger>&>::type&& std::move<std::shared_ptr<spdlog::async_logger>&>(std::shared_ptr<spdlog::async_logger>&)
FUNC 1ede0 24 0 std::chrono::time_point<std::chrono::_V2::system_clock, std::chrono::duration<long, std::ratio<1l, 1000000000l> > >::time_point()
FUNC 1ee04 af 0 std::shared_ptr<std::enable_if<!std::is_array<spdlog::details::thread_pool>::value, spdlog::details::thread_pool>::type> std::make_shared<spdlog::details::thread_pool, unsigned long&, unsigned long&, std::function<void ()>&, std::function<void ()>&>(unsigned long&, unsigned long&, std::function<void ()>&, std::function<void ()>&)
FUNC 1eeb3 12 0 std::remove_reference<std::shared_ptr<spdlog::details::thread_pool>&>::type&& std::move<std::shared_ptr<spdlog::details::thread_pool>&>(std::shared_ptr<spdlog::details::thread_pool>&)
FUNC 1eec6 37 0 std::shared_ptr<spdlog::details::thread_pool>::shared_ptr(std::shared_ptr<spdlog::details::thread_pool>&&)
FUNC 1eefe b2 0 std::function<void ()>::function(std::function<void ()> const&)
FUNC 1efb0 8b 0 std::function<void ()>::function<spdlog::init_thread_pool(unsigned long, unsigned long)::{lambda()#1}, void>(spdlog::init_thread_pool(unsigned long, unsigned long)::{lambda()#1}&&)
FUNC 1f03c 8b 0 std::function<void ()>::function<spdlog::init_thread_pool(unsigned long, unsigned long)::{lambda()#2}, void>(spdlog::init_thread_pool(unsigned long, unsigned long)::{lambda()#2}&&)
FUNC 1f0c8 143 0 std::filesystem::__cxx11::path::path<std::__cxx11::basic_string<char, std::char_traits<char>, std::allocator<char> >, std::filesystem::__cxx11::path>(std::__cxx11::basic_string<char, std::char_traits<char>, std::allocator<char> > const&, std::filesystem::__cxx11::path::format)
FUNC 1f20b 4f 0 std::shared_ptr<std::enable_if<!std::is_array<spdlog::sinks::ansicolor_stdout_sink<spdlog::details::console_mutex> >::value, spdlog::sinks::ansicolor_stdout_sink<spdlog::details::console_mutex> >::type> std::make_shared<spdlog::sinks::ansicolor_stdout_sink<spdlog::details::console_mutex>>()
FUNC 1f25a 1e 0 std::__shared_ptr_access<spdlog::sinks::ansicolor_stdout_sink<spdlog::details::console_mutex>, (__gnu_cxx::_Lock_policy)2, false, false>::operator->() const
FUNC 1f278 2a 0 std::shared_ptr<spdlog::sinks::sink>::shared_ptr<spdlog::sinks::ansicolor_stdout_sink<spdlog::details::console_mutex>, void>(std::shared_ptr<spdlog::sinks::ansicolor_stdout_sink<spdlog::details::console_mutex> > const&)
FUNC 1f2a2 35 0 std::vector<std::shared_ptr<spdlog::sinks::sink>, std::allocator<std::shared_ptr<spdlog::sinks::sink> > >::push_back(std::shared_ptr<spdlog::sinks::sink>&&)
FUNC 1f2d7 ee 0 std::__cxx11::basic_string<char, std::char_traits<char>, std::allocator<char> > std::operator+<char, std::char_traits<char>, std::allocator<char> >(std::__cxx11::basic_string<char, std::char_traits<char>, std::allocator<char> > const&, char const*)
FUNC 1f3c5 4b 0 std::__cxx11::basic_string<char, std::char_traits<char>, std::allocator<char> > std::operator+<char, std::char_traits<char>, std::allocator<char> >(std::__cxx11::basic_string<char, std::char_traits<char>, std::allocator<char> >&&, std::__cxx11::basic_string<char, std::char_traits<char>, std::allocator<char> > const&)
FUNC 1f410 4b 0 std::__cxx11::basic_string<char, std::char_traits<char>, std::allocator<char> > std::operator+<char, std::char_traits<char>, std::allocator<char> >(std::__cxx11::basic_string<char, std::char_traits<char>, std::allocator<char> >&&, char const*)
FUNC 1f45b 95 0 std::shared_ptr<std::enable_if<!std::is_array<spdlog::sinks::daily_file_sink<std::mutex, spdlog::sinks::daily_filename_calculator> >::value, spdlog::sinks::daily_file_sink<std::mutex, spdlog::sinks::daily_filename_calculator> >::type> std::make_shared<spdlog::sinks::daily_file_sink<std::mutex, spdlog::sinks::daily_filename_calculator>, std::__cxx11::basic_string<char, std::char_traits<char>, std::allocator<char> >, int const&, int const&>(std::__cxx11::basic_string<char, std::char_traits<char>, std::allocator<char> >&&, int const&, int const&)
FUNC 1f4f0 1e 0 std::__shared_ptr_access<spdlog::sinks::daily_file_sink<std::mutex, spdlog::sinks::daily_filename_calculator>, (__gnu_cxx::_Lock_policy)2, false, false>::operator->() const
FUNC 1f50e 2a 0 std::shared_ptr<spdlog::sinks::sink>::shared_ptr<spdlog::sinks::daily_file_sink<std::mutex, spdlog::sinks::daily_filename_calculator>, void>(std::shared_ptr<spdlog::sinks::daily_file_sink<std::mutex, spdlog::sinks::daily_filename_calculator> > const&)
FUNC 1f538 95 0 std::shared_ptr<std::enable_if<!std::is_array<spdlog::sinks::rotating_file_sink<std::mutex> >::value, spdlog::sinks::rotating_file_sink<std::mutex> >::type> std::make_shared<spdlog::sinks::rotating_file_sink<std::mutex>, std::__cxx11::basic_string<char, std::char_traits<char>, std::allocator<char> >, unsigned long const&, unsigned long const&>(std::__cxx11::basic_string<char, std::char_traits<char>, std::allocator<char> >&&, unsigned long const&, unsigned long const&)
FUNC 1f5ce 1e 0 std::__shared_ptr_access<spdlog::sinks::rotating_file_sink<std::mutex>, (__gnu_cxx::_Lock_policy)2, false, false>::operator->() const
FUNC 1f5ec 2a 0 std::shared_ptr<spdlog::sinks::sink>::shared_ptr<spdlog::sinks::rotating_file_sink<std::mutex>, void>(std::shared_ptr<spdlog::sinks::rotating_file_sink<std::mutex> > const&)
FUNC 1f616 4c 0 std::vector<std::shared_ptr<spdlog::sinks::sink>, std::allocator<std::shared_ptr<spdlog::sinks::sink> > >::begin()
FUNC 1f662 50 0 std::vector<std::shared_ptr<spdlog::sinks::sink>, std::allocator<std::shared_ptr<spdlog::sinks::sink> > >::end()
FUNC 1f6b2 cf 0 std::shared_ptr<std::enable_if<!std::is_array<spdlog::async_logger>::value, spdlog::async_logger>::type> std::make_shared<spdlog::async_logger, std::__cxx11::basic_string<char, std::char_traits<char>, std::allocator<char> > const&, __gnu_cxx::__normal_iterator<std::shared_ptr<spdlog::sinks::sink>*, std::vector<std::shared_ptr<spdlog::sinks::sink>, std::allocator<std::shared_ptr<spdlog::sinks::sink> > > >, __gnu_cxx::__normal_iterator<std::shared_ptr<spdlog::sinks::sink>*, std::vector<std::shared_ptr<spdlog::sinks::sink>, std::allocator<std::shared_ptr<spdlog::sinks::sink> > > >, std::shared_ptr<spdlog::details::thread_pool>, spdlog::async_overflow_policy>(std::__cxx11::basic_string<char, std::char_traits<char>, std::allocator<char> > const&, __gnu_cxx::__normal_iterator<std::shared_ptr<spdlog::sinks::sink>*, std::vector<std::shared_ptr<spdlog::sinks::sink>, std::allocator<std::shared_ptr<spdlog::sinks::sink> > > >&&, __gnu_cxx::__normal_iterator<std::shared_ptr<spdlog::sinks::sink>*, std::vector<std::shared_ptr<spdlog::sinks::sink>, std::allocator<std::shared_ptr<spdlog::sinks::sink> > > >&&, std::shared_ptr<spdlog::details::thread_pool>&&, spdlog::async_overflow_policy&&)
FUNC 1f782 3a 0 std::enable_if<std::is_assignable<std::__shared_ptr<spdlog::logger, (__gnu_cxx::_Lock_policy)2>&, std::shared_ptr<spdlog::async_logger> >::value, std::shared_ptr<spdlog::logger>&>::type std::shared_ptr<spdlog::logger>::operator=<spdlog::async_logger>(std::shared_ptr<spdlog::async_logger>&&)
FUNC 1f7bc 95 0 std::shared_ptr<std::enable_if<!std::is_array<spdlog::logger>::value, spdlog::logger>::type> std::make_shared<spdlog::logger, std::__cxx11::basic_string<char, std::char_traits<char>, std::allocator<char> > const&, __gnu_cxx::__normal_iterator<std::shared_ptr<spdlog::sinks::sink>*, std::vector<std::shared_ptr<spdlog::sinks::sink>, std::allocator<std::shared_ptr<spdlog::sinks::sink> > > >, __gnu_cxx::__normal_iterator<std::shared_ptr<spdlog::sinks::sink>*, std::vector<std::shared_ptr<spdlog::sinks::sink>, std::allocator<std::shared_ptr<spdlog::sinks::sink> > > > >(std::__cxx11::basic_string<char, std::char_traits<char>, std::allocator<char> > const&, __gnu_cxx::__normal_iterator<std::shared_ptr<spdlog::sinks::sink>*, std::vector<std::shared_ptr<spdlog::sinks::sink>, std::allocator<std::shared_ptr<spdlog::sinks::sink> > > >&&, __gnu_cxx::__normal_iterator<std::shared_ptr<spdlog::sinks::sink>*, std::vector<std::shared_ptr<spdlog::sinks::sink>, std::allocator<std::shared_ptr<spdlog::sinks::sink> > > >&&)
FUNC 1f852 3a 0 std::shared_ptr<spdlog::logger>::operator=(std::shared_ptr<spdlog::logger>&&)
FUNC 1f88c 1b 0 std::__shared_ptr<spdlog::logger, (__gnu_cxx::_Lock_policy)2>::operator bool() const
FUNC 1f8a8 21 0 std::_Sp_counted_base<(__gnu_cxx::_Lock_policy)2>::~_Sp_counted_base()
FUNC 1f8ca 2f 0 std::_Sp_counted_base<(__gnu_cxx::_Lock_policy)2>::~_Sp_counted_base()
FUNC 1f8f9 80 0 std::chrono::duration<long, std::ratio<1l, 1l> > std::chrono::__duration_cast_impl<std::chrono::duration<long, std::ratio<1l, 1l> >, std::ratio<1l, 1000000000l>, long, true, false>::__cast<long, std::ratio<1l, 1000000000l> >(std::chrono::duration<long, std::ratio<1l, 1000000000l> > const&)
FUNC 1f97a 15 0 std::chrono::time_point<std::chrono::_V2::system_clock, std::chrono::duration<long, std::ratio<1l, 1l> > >::time_since_epoch() const
FUNC 1f98f 1e 0 std::enable_if<std::chrono::__is_duration<std::chrono::duration<long, std::ratio<1l, 1000000000l> > >::value, std::chrono::duration<long, std::ratio<1l, 1000000000l> > >::type std::chrono::duration_cast<std::chrono::duration<long, std::ratio<1l, 1000000000l> >, long, std::ratio<1l, 1l> >(std::chrono::duration<long, std::ratio<1l, 1l> > const&)
FUNC 1f9ae 21 0 std::chrono::time_point<std::chrono::_V2::system_clock, std::chrono::duration<long, std::ratio<1l, 1000000000l> > >::time_point(std::chrono::duration<long, std::ratio<1l, 1000000000l> > const&)
FUNC 1f9d0 32 0 std::_Vector_base<std::shared_ptr<spdlog::sinks::sink>, std::allocator<std::shared_ptr<spdlog::sinks::sink> > >::_Vector_impl_data::_Vector_impl_data()
FUNC 1fa02 f 0 std::__new_allocator<std::shared_ptr<spdlog::sinks::sink> >::~__new_allocator()
FUNC 1fa12 52 0 std::_Vector_base<std::shared_ptr<spdlog::sinks::sink>, std::allocator<std::shared_ptr<spdlog::sinks::sink> > >::_M_deallocate(std::shared_ptr<spdlog::sinks::sink>*, unsigned long)
FUNC 1fa64 12 0 std::_Vector_base<std::shared_ptr<spdlog::sinks::sink>, std::allocator<std::shared_ptr<spdlog::sinks::sink> > >::_M_get_Tp_allocator()
FUNC 1fa76 32 0 std::_Vector_base<spdlog::details::log_msg_buffer, std::allocator<spdlog::details::log_msg_buffer> >::_Vector_impl_data::_Vector_impl_data()
FUNC 1faa8 f 0 std::__new_allocator<spdlog::details::log_msg_buffer>::~__new_allocator()
FUNC 1fab8 52 0 std::_Vector_base<spdlog::details::log_msg_buffer, std::allocator<spdlog::details::log_msg_buffer> >::_M_deallocate(spdlog::details::log_msg_buffer*, unsigned long)
FUNC 1fb0a 12 0 std::_Vector_base<spdlog::details::log_msg_buffer, std::allocator<spdlog::details::log_msg_buffer> >::_M_get_Tp_allocator()
FUNC 1fb1c 5b 0 std::__shared_ptr<spdlog::sinks::sink, (__gnu_cxx::_Lock_policy)2>::__shared_ptr(std::__shared_ptr<spdlog::sinks::sink, (__gnu_cxx::_Lock_policy)2>&&)
FUNC 1fb78 32 0 std::tuple<std::__cxx11::basic_string<char, std::char_traits<char>, std::allocator<char> >&, std::__cxx11::basic_string<char, std::char_traits<char>, std::allocator<char> >&>::tuple<true, true>(std::__cxx11::basic_string<char, std::char_traits<char>, std::allocator<char> >&, std::__cxx11::basic_string<char, std::char_traits<char>, std::allocator<char> >&)
FUNC 1fbaa 12 0 std::remove_reference<std::tuple<std::__cxx11::basic_string<char, std::char_traits<char>, std::allocator<char> >, std::__cxx11::basic_string<char, std::char_traits<char>, std::allocator<char> > >&>::type&& std::move<std::tuple<std::__cxx11::basic_string<char, std::char_traits<char>, std::allocator<char> >, std::__cxx11::basic_string<char, std::char_traits<char>, std::allocator<char> > >&>(std::tuple<std::__cxx11::basic_string<char, std::char_traits<char>, std::allocator<char> >, std::__cxx11::basic_string<char, std::char_traits<char>, std::allocator<char> > >&)
FUNC 1fbbc 78 0 void std::_Tuple_impl<0ul, std::__cxx11::basic_string<char, std::char_traits<char>, std::allocator<char> >&, std::__cxx11::basic_string<char, std::char_traits<char>, std::allocator<char> >&>::_M_assign<std::__cxx11::basic_string<char, std::char_traits<char>, std::allocator<char> >, std::__cxx11::basic_string<char, std::char_traits<char>, std::allocator<char> > >(std::_Tuple_impl<0ul, std::__cxx11::basic_string<char, std::char_traits<char>, std::allocator<char> >, std::__cxx11::basic_string<char, std::char_traits<char>, std::allocator<char> > >&&)
FUNC 1fc34 5 0 void fmt::v11::detail::ignore_unused<int>(int const&)
FUNC 1fc3a 66 0 fmt::v11::detail::value<fmt::v11::context>::value<std::__cxx11::basic_string<char, std::char_traits<char>, std::allocator<char> >, char, 0>(std::__cxx11::basic_string<char, std::char_traits<char>, std::allocator<char> > const&)
FUNC 1fca0 12 0 unsigned long& std::forward<unsigned long&>(std::remove_reference<unsigned long&>::type&)
FUNC 1fcb2 12 0 std::function<void ()>& std::forward<std::function<void ()>&>(std::remove_reference<std::function<void ()>&>::type&)
FUNC 1fcc4 91 0 std::shared_ptr<spdlog::details::thread_pool>::shared_ptr<std::allocator<void>, unsigned long&, unsigned long&, std::function<void ()>&, std::function<void ()>&>(std::_Sp_alloc_shared_tag<std::allocator<void> >, unsigned long&, unsigned long&, std::function<void ()>&, std::function<void ()>&)
FUNC 1fd56 5b 0 std::__shared_ptr<spdlog::details::thread_pool, (__gnu_cxx::_Lock_policy)2>::__shared_ptr(std::__shared_ptr<spdlog::details::thread_pool, (__gnu_cxx::_Lock_policy)2>&&)
FUNC 1fdb2 21 0 std::function<void ()>::operator bool() const
FUNC 1fdd3 13 0 bool std::_Function_base::_Base_manager<spdlog::init_thread_pool(unsigned long, unsigned long)::{lambda()#1}>::_M_not_empty_function<spdlog::init_thread_pool(unsigned long, unsigned long)::{lambda()#1}>(spdlog::init_thread_pool(unsigned long, unsigned long)::{lambda()#1} const&)
FUNC 1fde6 12 0 spdlog::init_thread_pool(unsigned long, unsigned long)::{lambda()#1}&& std::forward<spdlog::init_thread_pool(unsigned long, unsigned long)::{lambda()#1}>(std::remove_reference<spdlog::init_thread_pool(unsigned long, unsigned long)::{lambda()#1}>::type&)
FUNC 1fdf8 35 0 void std::_Function_base::_Base_manager<spdlog::init_thread_pool(unsigned long, unsigned long)::{lambda()#1}>::_M_init_functor<spdlog::init_thread_pool(unsigned long, unsigned long)::{lambda()#1}>(std::_Any_data&, spdlog::init_thread_pool(unsigned long, unsigned long)::{lambda()#1}&&)
FUNC 1fe2d 27 0 std::_Function_handler<void (), spdlog::init_thread_pool(unsigned long, unsigned long)::{lambda()#1}>::_M_invoke(std::_Any_data const&)
FUNC 1fe54 7f 0 std::_Function_handler<void (), spdlog::init_thread_pool(unsigned long, unsigned long)::{lambda()#1}>::_M_manager(std::_Any_data&, std::_Any_data const&, std::_Manager_operation)
FUNC 1fed3 13 0 bool std::_Function_base::_Base_manager<spdlog::init_thread_pool(unsigned long, unsigned long)::{lambda()#2}>::_M_not_empty_function<spdlog::init_thread_pool(unsigned long, unsigned long)::{lambda()#2}>(spdlog::init_thread_pool(unsigned long, unsigned long)::{lambda()#2} const&)
FUNC 1fee6 12 0 spdlog::init_thread_pool(unsigned long, unsigned long)::{lambda()#2}&& std::forward<spdlog::init_thread_pool(unsigned long, unsigned long)::{lambda()#2}>(std::remove_reference<spdlog::init_thread_pool(unsigned long, unsigned long)::{lambda()#2}>::type&)
FUNC 1fef8 35 0 void std::_Function_base::_Base_manager<spdlog::init_thread_pool(unsigned long, unsigned long)::{lambda()#2}>::_M_init_functor<spdlog::init_thread_pool(unsigned long, unsigned long)::{lambda()#2}>(std::_Any_data&, spdlog::init_thread_pool(unsigned long, unsigned long)::{lambda()#2}&&)
FUNC 1ff2d 27 0 std::_Function_handler<void (), spdlog::init_thread_pool(unsigned long, unsigned long)::{lambda()#2}>::_M_invoke(std::_Any_data const&)
FUNC 1ff54 7f 0 std::_Function_handler<void (), spdlog::init_thread_pool(unsigned long, unsigned long)::{lambda()#2}>::_M_manager(std::_Any_data&, std::_Any_data const&, std::_Manager_operation)
FUNC 1ffd4 37 0 std::__shared_count<(__gnu_cxx::_Lock_policy)2>::_M_swap(std::__shared_count<(__gnu_cxx::_Lock_policy)2>&)
FUNC 2000b 1e 0 std::basic_string_view<char, std::char_traits<char> > std::filesystem::__cxx11::__detail::__effective_range<char, std::char_traits<char>, std::allocator<char> >(std::__cxx11::basic_string<char, std::char_traits<char>, std::allocator<char> > const&)
FUNC 2002a 2a 0 std::shared_ptr<spdlog::sinks::ansicolor_stdout_sink<spdlog::details::console_mutex> >::shared_ptr<std::allocator<void>>(std::_Sp_alloc_shared_tag<std::allocator<void> >)
FUNC 20054 1e 0 std::__shared_ptr_access<spdlog::sinks::ansicolor_stdout_sink<spdlog::details::console_mutex>, (__gnu_cxx::_Lock_policy)2, false, false>::_M_get() const
FUNC 20072 40 0 std::__shared_ptr<spdlog::sinks::sink, (__gnu_cxx::_Lock_policy)2>::__shared_ptr<spdlog::sinks::ansicolor_stdout_sink<spdlog::details::console_mutex>, void>(std::__shared_ptr<spdlog::sinks::ansicolor_stdout_sink<spdlog::details::console_mutex>, (__gnu_cxx::_Lock_policy)2> const&)
FUNC 200b2 f7 0 std::shared_ptr<spdlog::sinks::sink>& std::vector<std::shared_ptr<spdlog::sinks::sink>, std::allocator<std::shared_ptr<spdlog::sinks::sink> > >::emplace_back<std::shared_ptr<spdlog::sinks::sink> >(std::shared_ptr<spdlog::sinks::sink>&&)
FUNC 201a9 122 0 std::__cxx11::basic_string<char, std::char_traits<char>, std::allocator<char> > std::__str_concat<std::__cxx11::basic_string<char, std::char_traits<char>, std::allocator<char> > >(std::__cxx11::basic_string<char, std::char_traits<char>, std::allocator<char> >::value_type const*, std::__cxx11::basic_string<char, std::char_traits<char>, std::allocator<char> >::size_type, std::__cxx11::basic_string<char, std::char_traits<char>, std::allocator<char> >::value_type const*, std::__cxx11::basic_string<char, std::char_traits<char>, std::allocator<char> >::size_type, std::__cxx11::basic_string<char, std::char_traits<char>, std::allocator<char> >::allocator_type const&)
FUNC 202cb 12 0 std::__cxx11::basic_string<char, std::char_traits<char>, std::allocator<char> >&& std::forward<std::__cxx11::basic_string<char, std::char_traits<char>, std::allocator<char> > >(std::remove_reference<std::__cxx11::basic_string<char, std::char_traits<char>, std::allocator<char> > >::type&)
FUNC 202dd 12 0 int const& std::forward<int const&>(std::remove_reference<int const&>::type&)
FUNC 202f0 77 0 std::shared_ptr<spdlog::sinks::daily_file_sink<std::mutex, spdlog::sinks::daily_filename_calculator> >::shared_ptr<std::allocator<void>, std::__cxx11::basic_string<char, std::char_traits<char>, std::allocator<char> >, int const&, int const&>(std::_Sp_alloc_shared_tag<std::allocator<void> >, std::__cxx11::basic_string<char, std::char_traits<char>, std::allocator<char> >&&, int const&, int const&)
FUNC 20368 1e 0 std::__shared_ptr_access<spdlog::sinks::daily_file_sink<std::mutex, spdlog::sinks::daily_filename_calculator>, (__gnu_cxx::_Lock_policy)2, false, false>::_M_get() const
FUNC 20386 40 0 std::__shared_ptr<spdlog::sinks::sink, (__gnu_cxx::_Lock_policy)2>::__shared_ptr<spdlog::sinks::daily_file_sink<std::mutex, spdlog::sinks::daily_filename_calculator>, void>(std::__shared_ptr<spdlog::sinks::daily_file_sink<std::mutex, spdlog::sinks::daily_filename_calculator>, (__gnu_cxx::_Lock_policy)2> const&)
FUNC 203c6 12 0 unsigned long const& std::forward<unsigned long const&>(std::remove_reference<unsigned long const&>::type&)
FUNC 203d8 77 0 std::shared_ptr<spdlog::sinks::rotating_file_sink<std::mutex> >::shared_ptr<std::allocator<void>, std::__cxx11::basic_string<char, std::char_traits<char>, std::allocator<char> >, unsigned long const&, unsigned long const&>(std::_Sp_alloc_shared_tag<std::allocator<void> >, std::__cxx11::basic_string<char, std::char_traits<char>, std::allocator<char> >&&, unsigned long const&, unsigned long const&)
FUNC 20450 1e 0 std::__shared_ptr_access<spdlog::sinks::rotating_file_sink<std::mutex>, (__gnu_cxx::_Lock_policy)2, false, false>::_M_get() const
FUNC 2046e 40 0 std::__shared_ptr<spdlog::sinks::sink, (__gnu_cxx::_Lock_policy)2>::__shared_ptr<spdlog::sinks::rotating_file_sink<std::mutex>, void>(std::__shared_ptr<spdlog::sinks::rotating_file_sink<std::mutex>, (__gnu_cxx::_Lock_policy)2> const&)
FUNC 204ae 21 0 __gnu_cxx::__normal_iterator<std::shared_ptr<spdlog::sinks::sink>*, std::vector<std::shared_ptr<spdlog::sinks::sink>, std::allocator<std::shared_ptr<spdlog::sinks::sink> > > >::__normal_iterator(std::shared_ptr<spdlog::sinks::sink>* const&)
FUNC 204cf 12 0 std::__cxx11::basic_string<char, std::char_traits<char>, std::allocator<char> > const& std::forward<std::__cxx11::basic_string<char, std::char_traits<char>, std::allocator<char> > const&>(std::remove_reference<std::__cxx11::basic_string<char, std::char_traits<char>, std::allocator<char> > const&>::type&)
FUNC 204e1 12 0 __gnu_cxx::__normal_iterator<std::shared_ptr<spdlog::sinks::sink>*, std::vector<std::shared_ptr<spdlog::sinks::sink>, std::allocator<std::shared_ptr<spdlog::sinks::sink> > > >&& std::forward<__gnu_cxx::__normal_iterator<std::shared_ptr<spdlog::sinks::sink>*, std::vector<std::shared_ptr<spdlog::sinks::sink>, std::allocator<std::shared_ptr<spdlog::sinks::sink> > > > >(std::remove_reference<__gnu_cxx::__normal_iterator<std::shared_ptr<spdlog::sinks::sink>*, std::vector<std::shared_ptr<spdlog::sinks::sink>, std::allocator<std::shared_ptr<spdlog::sinks::sink> > > > >::type&)
FUNC 204f3 12 0 std::shared_ptr<spdlog::details::thread_pool>&& std::forward<std::shared_ptr<spdlog::details::thread_pool> >(std::remove_reference<std::shared_ptr<spdlog::details::thread_pool> >::type&)
FUNC 20505 12 0 spdlog::async_overflow_policy&& std::forward<spdlog::async_overflow_policy>(std::remove_reference<spdlog::async_overflow_policy>::type&)
FUNC 20518 ae 0 std::shared_ptr<spdlog::async_logger>::shared_ptr<std::allocator<void>, std::__cxx11::basic_string<char, std::char_traits<char>, std::allocator<char> > const&, __gnu_cxx::__normal_iterator<std::shared_ptr<spdlog::sinks::sink>*, std::vector<std::shared_ptr<spdlog::sinks::sink>, std::allocator<std::shared_ptr<spdlog::sinks::sink> > > >, __gnu_cxx::__normal_iterator<std::shared_ptr<spdlog::sinks::sink>*, std::vector<std::shared_ptr<spdlog::sinks::sink>, std::allocator<std::shared_ptr<spdlog::sinks::sink> > > >, std::shared_ptr<spdlog::details::thread_pool>, spdlog::async_overflow_policy>(std::_Sp_alloc_shared_tag<std::allocator<void> >, std::__cxx11::basic_string<char, std::char_traits<char>, std::allocator<char> > const&, __gnu_cxx::__normal_iterator<std::shared_ptr<spdlog::sinks::sink>*, std::vector<std::shared_ptr<spdlog::sinks::sink>, std::allocator<std::shared_ptr<spdlog::sinks::sink> > > >&&, __gnu_cxx::__normal_iterator<std::shared_ptr<spdlog::sinks::sink>*, std::vector<std::shared_ptr<spdlog::sinks::sink>, std::allocator<std::shared_ptr<spdlog::sinks::sink> > > >&&, std::shared_ptr<spdlog::details::thread_pool>&&, spdlog::async_overflow_policy&&)
FUNC 205c6 7a 0 std::enable_if<std::__sp_compatible_with<spdlog::async_logger*, spdlog::logger*>::value, std::__shared_ptr<spdlog::logger, (__gnu_cxx::_Lock_policy)2>&>::type std::__shared_ptr<spdlog::logger, (__gnu_cxx::_Lock_policy)2>::operator=<spdlog::async_logger>(std::__shared_ptr<spdlog::async_logger, (__gnu_cxx::_Lock_policy)2>&&)
FUNC 20640 77 0 std::shared_ptr<spdlog::logger>::shared_ptr<std::allocator<void>, std::__cxx11::basic_string<char, std::char_traits<char>, std::allocator<char> > const&, __gnu_cxx::__normal_iterator<std::shared_ptr<spdlog::sinks::sink>*, std::vector<std::shared_ptr<spdlog::sinks::sink>, std::allocator<std::shared_ptr<spdlog::sinks::sink> > > >, __gnu_cxx::__normal_iterator<std::shared_ptr<spdlog::sinks::sink>*, std::vector<std::shared_ptr<spdlog::sinks::sink>, std::allocator<std::shared_ptr<spdlog::sinks::sink> > > > >(std::_Sp_alloc_shared_tag<std::allocator<void> >, std::__cxx11::basic_string<char, std::char_traits<char>, std::allocator<char> > const&, __gnu_cxx::__normal_iterator<std::shared_ptr<spdlog::sinks::sink>*, std::vector<std::shared_ptr<spdlog::sinks::sink>, std::allocator<std::shared_ptr<spdlog::sinks::sink> > > >&&, __gnu_cxx::__normal_iterator<std::shared_ptr<spdlog::sinks::sink>*, std::vector<std::shared_ptr<spdlog::sinks::sink>, std::allocator<std::shared_ptr<spdlog::sinks::sink> > > >&&)
FUNC 206b7 12 0 std::remove_reference<std::shared_ptr<spdlog::logger>&>::type&& std::move<std::shared_ptr<spdlog::logger>&>(std::shared_ptr<spdlog::logger>&)
FUNC 206ca 7a 0 std::__shared_ptr<spdlog::logger, (__gnu_cxx::_Lock_policy)2>::operator=(std::__shared_ptr<spdlog::logger, (__gnu_cxx::_Lock_policy)2>&&)
FUNC 20744 63 0 std::chrono::duration<long, std::ratio<1l, 1000000000l> > std::chrono::__duration_cast_impl<std::chrono::duration<long, std::ratio<1l, 1000000000l> >, std::ratio<1000000000l, 1l>, long, false, true>::__cast<long, std::ratio<1l, 1l> >(std::chrono::duration<long, std::ratio<1l, 1l> > const&)
FUNC 207a7 2a 0 void std::_Destroy<std::shared_ptr<spdlog::sinks::sink>*>(std::shared_ptr<spdlog::sinks::sink>*, std::shared_ptr<spdlog::sinks::sink>*)
FUNC 207d1 2a 0 void std::_Destroy<spdlog::details::log_msg_buffer*>(spdlog::details::log_msg_buffer*, spdlog::details::log_msg_buffer*)
FUNC 207fc 2a 0 std::_Vector_base<std::shared_ptr<spdlog::sinks::sink>, std::allocator<std::shared_ptr<spdlog::sinks::sink> > >::_Vector_base(std::allocator<std::shared_ptr<spdlog::sinks::sink> > const&)
FUNC 20826 45 0 std::_Tuple_impl<0ul, std::__cxx11::basic_string<char, std::char_traits<char>, std::allocator<char> >&, std::__cxx11::basic_string<char, std::char_traits<char>, std::allocator<char> >&>::_Tuple_impl(std::__cxx11::basic_string<char, std::char_traits<char>, std::allocator<char> >&, std::__cxx11::basic_string<char, std::char_traits<char>, std::allocator<char> >&)
FUNC 2086b 22 0 std::_Tuple_impl<0ul, std::__cxx11::basic_string<char, std::char_traits<char>, std::allocator<char> >&, std::__cxx11::basic_string<char, std::char_traits<char>, std::allocator<char> >&>::_M_head(std::_Tuple_impl<0ul, std::__cxx11::basic_string<char, std::char_traits<char>, std::allocator<char> >&, std::__cxx11::basic_string<char, std::char_traits<char>, std::allocator<char> >&>&)
FUNC 2088d 22 0 std::_Tuple_impl<0ul, std::__cxx11::basic_string<char, std::char_traits<char>, std::allocator<char> >, std::__cxx11::basic_string<char, std::char_traits<char>, std::allocator<char> > >::_M_head(std::_Tuple_impl<0ul, std::__cxx11::basic_string<char, std::char_traits<char>, std::allocator<char> >, std::__cxx11::basic_string<char, std::char_traits<char>, std::allocator<char> > >&)
FUNC 208af 12 0 std::_Tuple_impl<0ul, std::__cxx11::basic_string<char, std::char_traits<char>, std::allocator<char> >&, std::__cxx11::basic_string<char, std::char_traits<char>, std::allocator<char> >&>::_M_tail(std::_Tuple_impl<0ul, std::__cxx11::basic_string<char, std::char_traits<char>, std::allocator<char> >&, std::__cxx11::basic_string<char, std::char_traits<char>, std::allocator<char> >&>&)
FUNC 208c1 12 0 std::_Tuple_impl<0ul, std::__cxx11::basic_string<char, std::char_traits<char>, std::allocator<char> >, std::__cxx11::basic_string<char, std::char_traits<char>, std::allocator<char> > >::_M_tail(std::_Tuple_impl<0ul, std::__cxx11::basic_string<char, std::char_traits<char>, std::allocator<char> >, std::__cxx11::basic_string<char, std::char_traits<char>, std::allocator<char> > >&)
FUNC 208d3 12 0 std::remove_reference<std::_Tuple_impl<1ul, std::__cxx11::basic_string<char, std::char_traits<char>, std::allocator<char> > >&>::type&& std::move<std::_Tuple_impl<1ul, std::__cxx11::basic_string<char, std::char_traits<char>, std::allocator<char> > >&>(std::_Tuple_impl<1ul, std::__cxx11::basic_string<char, std::char_traits<char>, std::allocator<char> > >&)
FUNC 208e6 4a 0 void std::_Tuple_impl<1ul, std::__cxx11::basic_string<char, std::char_traits<char>, std::allocator<char> >&>::_M_assign<std::__cxx11::basic_string<char, std::char_traits<char>, std::allocator<char> > >(std::_Tuple_impl<1ul, std::__cxx11::basic_string<char, std::char_traits<char>, std::allocator<char> > >&&)
FUNC 20930 46 0 fmt::v11::basic_string_view<std::__cxx11::basic_string<char, std::char_traits<char>, std::allocator<char> >::value_type> fmt::v11::detail::to_string_view<std::__cxx11::basic_string<char, std::char_traits<char>, std::allocator<char> >, 0>(std::__cxx11::basic_string<char, std::char_traits<char>, std::allocator<char> > const&)
FUNC 20976 c0 0 std::__shared_ptr<spdlog::details::thread_pool, (__gnu_cxx::_Lock_policy)2>::__shared_ptr<std::allocator<void>, unsigned long&, unsigned long&, std::function<void ()>&, std::function<void ()>&>(std::_Sp_alloc_shared_tag<std::allocator<void> >, unsigned long&, unsigned long&, std::function<void ()>&, std::function<void ()>&)
FUNC 20a36 1e 0 std::type_info const*& std::_Any_data::_M_access<std::type_info const*>()
FUNC 20a54 3c 0 void std::_Function_base::_Base_manager<spdlog::init_thread_pool(unsigned long, unsigned long)::{lambda()#1}>::_M_create<spdlog::init_thread_pool(unsigned long, unsigned long)::{lambda()#1}>(std::_Any_data&, spdlog::init_thread_pool(unsigned long, unsigned long)::{lambda()#1}&&, std::integral_constant<bool, true>)
FUNC 20a90 2e 0 std::_Function_base::_Base_manager<spdlog::init_thread_pool(unsigned long, unsigned long)::{lambda()#1}>::_M_get_pointer(std::_Any_data const&)
FUNC 20abe 27 0 std::enable_if<is_invocable_r_v<void, spdlog::init_thread_pool(unsigned long, unsigned long)::{lambda()#1}&>, void>::type std::__invoke_r<void, spdlog::init_thread_pool(unsigned long, unsigned long)::{lambda()#1}&>(spdlog::init_thread_pool(unsigned long, unsigned long)::{lambda()#1}&)
FUNC 20ae6 1e 0 spdlog::init_thread_pool(unsigned long, unsigned long)::{lambda()#1}*& std::_Any_data::_M_access<spdlog::init_thread_pool(unsigned long, unsigned long)::{lambda()#1}*>()
FUNC 20b04 aa 0 std::_Function_base::_Base_manager<spdlog::init_thread_pool(unsigned long, unsigned long)::{lambda()#1}>::_M_manager(std::_Any_data&, std::_Any_data const&, std::_Manager_operation)
FUNC 20bae 3c 0 void std::_Function_base::_Base_manager<spdlog::init_thread_pool(unsigned long, unsigned long)::{lambda()#2}>::_M_create<spdlog::init_thread_pool(unsigned long, unsigned long)::{lambda()#2}>(std::_Any_data&, spdlog::init_thread_pool(unsigned long, unsigned long)::{lambda()#2}&&, std::integral_constant<bool, true>)
FUNC 20bea 2e 0 std::_Function_base::_Base_manager<spdlog::init_thread_pool(unsigned long, unsigned long)::{lambda()#2}>::_M_get_pointer(std::_Any_data const&)
FUNC 20c18 27 0 std::enable_if<is_invocable_r_v<void, spdlog::init_thread_pool(unsigned long, unsigned long)::{lambda()#2}&>, void>::type std::__invoke_r<void, spdlog::init_thread_pool(unsigned long, unsigned long)::{lambda()#2}&>(spdlog::init_thread_pool(unsigned long, unsigned long)::{lambda()#2}&)
FUNC 20c40 1e 0 spdlog::init_thread_pool(unsigned long, unsigned long)::{lambda()#2}*& std::_Any_data::_M_access<spdlog::init_thread_pool(unsigned long, unsigned long)::{lambda()#2}*>()
FUNC 20c5e aa 0 std::_Function_base::_Base_manager<spdlog::init_thread_pool(unsigned long, unsigned long)::{lambda()#2}>::_M_manager(std::_Any_data&, std::_Any_data const&, std::_Manager_operation)
FUNC 20d08 53 0 std::__shared_ptr<spdlog::sinks::ansicolor_stdout_sink<spdlog::details::console_mutex>, (__gnu_cxx::_Lock_policy)2>::__shared_ptr<std::allocator<void>>(std::_Sp_alloc_shared_tag<std::allocator<void> >)
FUNC 20d5c 15 0 std::__shared_ptr<spdlog::sinks::ansicolor_stdout_sink<spdlog::details::console_mutex>, (__gnu_cxx::_Lock_policy)2>::get() const
FUNC 20d71 12 0 std::shared_ptr<spdlog::sinks::sink>&& std::forward<std::shared_ptr<spdlog::sinks::sink> >(std::remove_reference<std::shared_ptr<spdlog::sinks::sink> >::type&)
FUNC 20d84 241 0 void std::vector<std::shared_ptr<spdlog::sinks::sink>, std::allocator<std::shared_ptr<spdlog::sinks::sink> > >::_M_realloc_insert<std::shared_ptr<spdlog::sinks::sink> >(__gnu_cxx::__normal_iterator<std::shared_ptr<spdlog::sinks::sink>*, std::vector<std::shared_ptr<spdlog::sinks::sink>, std::allocator<std::shared_ptr<spdlog::sinks::sink> > > >, std::shared_ptr<spdlog::sinks::sink>&&)
FUNC 20fc6 66 0 std::vector<std::shared_ptr<spdlog::sinks::sink>, std::allocator<std::shared_ptr<spdlog::sinks::sink> > >::back()
FUNC 2102c a0 0 std::__shared_ptr<spdlog::sinks::daily_file_sink<std::mutex, spdlog::sinks::daily_filename_calculator>, (__gnu_cxx::_Lock_policy)2>::__shared_ptr<std::allocator<void>, std::__cxx11::basic_string<char, std::char_traits<char>, std::allocator<char> >, int const&, int const&>(std::_Sp_alloc_shared_tag<std::allocator<void> >, std::__cxx11::basic_string<char, std::char_traits<char>, std::allocator<char> >&&, int const&, int const&)
FUNC 210cc 15 0 std::__shared_ptr<spdlog::sinks::daily_file_sink<std::mutex, spdlog::sinks::daily_filename_calculator>, (__gnu_cxx::_Lock_policy)2>::get() const
FUNC 210e2 a0 0 std::__shared_ptr<spdlog::sinks::rotating_file_sink<std::mutex>, (__gnu_cxx::_Lock_policy)2>::__shared_ptr<std::allocator<void>, std::__cxx11::basic_string<char, std::char_traits<char>, std::allocator<char> >, unsigned long const&, unsigned long const&>(std::_Sp_alloc_shared_tag<std::allocator<void> >, std::__cxx11::basic_string<char, std::char_traits<char>, std::allocator<char> >&&, unsigned long const&, unsigned long const&)
FUNC 21182 15 0 std::__shared_ptr<spdlog::sinks::rotating_file_sink<std::mutex>, (__gnu_cxx::_Lock_policy)2>::get() const
FUNC 21198 d1 0 std::__shared_ptr<spdlog::async_logger, (__gnu_cxx::_Lock_policy)2>::__shared_ptr<std::allocator<void>, std::__cxx11::basic_string<char, std::char_traits<char>, std::allocator<char> > const&, __gnu_cxx::__normal_iterator<std::shared_ptr<spdlog::sinks::sink>*, std::vector<std::shared_ptr<spdlog::sinks::sink>, std::allocator<std::shared_ptr<spdlog::sinks::sink> > > >, __gnu_cxx::__normal_iterator<std::shared_ptr<spdlog::sinks::sink>*, std::vector<std::shared_ptr<spdlog::sinks::sink>, std::allocator<std::shared_ptr<spdlog::sinks::sink> > > >, std::shared_ptr<spdlog::details::thread_pool>, spdlog::async_overflow_policy>(std::_Sp_alloc_shared_tag<std::allocator<void> >, std::__cxx11::basic_string<char, std::char_traits<char>, std::allocator<char> > const&, __gnu_cxx::__normal_iterator<std::shared_ptr<spdlog::sinks::sink>*, std::vector<std::shared_ptr<spdlog::sinks::sink>, std::allocator<std::shared_ptr<spdlog::sinks::sink> > > >&&, __gnu_cxx::__normal_iterator<std::shared_ptr<spdlog::sinks::sink>*, std::vector<std::shared_ptr<spdlog::sinks::sink>, std::allocator<std::shared_ptr<spdlog::sinks::sink> > > >&&, std::shared_ptr<spdlog::details::thread_pool>&&, spdlog::async_overflow_policy&&)
FUNC 21269 12 0 std::remove_reference<std::__shared_ptr<spdlog::async_logger, (__gnu_cxx::_Lock_policy)2>&>::type&& std::move<std::__shared_ptr<spdlog::async_logger, (__gnu_cxx::_Lock_policy)2>&>(std::__shared_ptr<spdlog::async_logger, (__gnu_cxx::_Lock_policy)2>&)
FUNC 2127c 5b 0 std::__shared_ptr<spdlog::logger, (__gnu_cxx::_Lock_policy)2>::__shared_ptr<spdlog::async_logger, void>(std::__shared_ptr<spdlog::async_logger, (__gnu_cxx::_Lock_policy)2>&&)
FUNC 212d8 45 0 std::__shared_ptr<spdlog::logger, (__gnu_cxx::_Lock_policy)2>::swap(std::__shared_ptr<spdlog::logger, (__gnu_cxx::_Lock_policy)2>&)
FUNC 2131e a0 0 std::__shared_ptr<spdlog::logger, (__gnu_cxx::_Lock_policy)2>::__shared_ptr<std::allocator<void>, std::__cxx11::basic_string<char, std::char_traits<char>, std::allocator<char> > const&, __gnu_cxx::__normal_iterator<std::shared_ptr<spdlog::sinks::sink>*, std::vector<std::shared_ptr<spdlog::sinks::sink>, std::allocator<std::shared_ptr<spdlog::sinks::sink> > > >, __gnu_cxx::__normal_iterator<std::shared_ptr<spdlog::sinks::sink>*, std::vector<std::shared_ptr<spdlog::sinks::sink>, std::allocator<std::shared_ptr<spdlog::sinks::sink> > > > >(std::_Sp_alloc_shared_tag<std::allocator<void> >, std::__cxx11::basic_string<char, std::char_traits<char>, std::allocator<char> > const&, __gnu_cxx::__normal_iterator<std::shared_ptr<spdlog::sinks::sink>*, std::vector<std::shared_ptr<spdlog::sinks::sink>, std::allocator<std::shared_ptr<spdlog::sinks::sink> > > >&&, __gnu_cxx::__normal_iterator<std::shared_ptr<spdlog::sinks::sink>*, std::vector<std::shared_ptr<spdlog::sinks::sink>, std::allocator<std::shared_ptr<spdlog::sinks::sink> > > >&&)
FUNC 213be 12 0 std::remove_reference<std::__shared_ptr<spdlog::logger, (__gnu_cxx::_Lock_policy)2>&>::type&& std::move<std::__shared_ptr<spdlog::logger, (__gnu_cxx::_Lock_policy)2>&>(std::__shared_ptr<spdlog::logger, (__gnu_cxx::_Lock_policy)2>&)
FUNC 213d0 5b 0 std::__shared_ptr<spdlog::logger, (__gnu_cxx::_Lock_policy)2>::__shared_ptr(std::__shared_ptr<spdlog::logger, (__gnu_cxx::_Lock_policy)2>&&)
FUNC 2142c 34 0 std::__new_allocator<std::shared_ptr<spdlog::sinks::sink> >::deallocate(std::shared_ptr<spdlog::sinks::sink>*, unsigned long)
FUNC 21460 3d 0 void std::_Destroy_aux<false>::__destroy<std::shared_ptr<spdlog::sinks::sink>*>(std::shared_ptr<spdlog::sinks::sink>*, std::shared_ptr<spdlog::sinks::sink>*)
FUNC 2149e 3d 0 std::__new_allocator<spdlog::details::log_msg_buffer>::deallocate(spdlog::details::log_msg_buffer*, unsigned long)
FUNC 214db 40 0 void std::_Destroy_aux<false>::__destroy<spdlog::details::log_msg_buffer*>(spdlog::details::log_msg_buffer*, spdlog::details::log_msg_buffer*)
FUNC 2151c 45 0 std::_Vector_base<std::shared_ptr<spdlog::sinks::sink>, std::allocator<std::shared_ptr<spdlog::sinks::sink> > >::_Vector_impl::_Vector_impl(std::allocator<std::shared_ptr<spdlog::sinks::sink> > const&)
FUNC 21561 a3 0 std::vector<std::shared_ptr<spdlog::sinks::sink>, std::allocator<std::shared_ptr<spdlog::sinks::sink> > >::_S_check_init_len(unsigned long, std::allocator<std::shared_ptr<spdlog::sinks::sink> > const&)
FUNC 21604 4d 0 std::_Vector_base<std::shared_ptr<spdlog::sinks::sink>, std::allocator<std::shared_ptr<spdlog::sinks::sink> > >::_M_allocate(unsigned long)
FUNC 21652 2a 0 std::_Tuple_impl<1ul, std::__cxx11::basic_string<char, std::char_traits<char>, std::allocator<char> >&>::_Tuple_impl(std::__cxx11::basic_string<char, std::char_traits<char>, std::allocator<char> >&)
FUNC 2167c 1e 0 std::_Head_base<0ul, std::__cxx11::basic_string<char, std::char_traits<char>, std::allocator<char> >&, false>::_Head_base(std::__cxx11::basic_string<char, std::char_traits<char>, std::allocator<char> >&)
FUNC 2169a 15 0 std::_Head_base<0ul, std::__cxx11::basic_string<char, std::char_traits<char>, std::allocator<char> >&, false>::_M_head(std::_Head_base<0ul, std::__cxx11::basic_string<char, std::char_traits<char>, std::allocator<char> >&, false>&)
FUNC 216af 12 0 std::_Head_base<0ul, std::__cxx11::basic_string<char, std::char_traits<char>, std::allocator<char> >, false>::_M_head(std::_Head_base<0ul, std::__cxx11::basic_string<char, std::char_traits<char>, std::allocator<char> >, false>&)
FUNC 216c1 1e 0 std::_Tuple_impl<1ul, std::__cxx11::basic_string<char, std::char_traits<char>, std::allocator<char> >&>::_M_head(std::_Tuple_impl<1ul, std::__cxx11::basic_string<char, std::char_traits<char>, std::allocator<char> >&>&)
FUNC 216df 1e 0 std::_Tuple_impl<1ul, std::__cxx11::basic_string<char, std::char_traits<char>, std::allocator<char> > >::_M_head(std::_Tuple_impl<1ul, std::__cxx11::basic_string<char, std::char_traits<char>, std::allocator<char> > >&)
FUNC 216fe 1e2 0 std::__shared_count<(__gnu_cxx::_Lock_policy)2>::__shared_count<spdlog::details::thread_pool, std::allocator<void>, unsigned long&, unsigned long&, std::function<void ()>&, std::function<void ()>&>(spdlog::details::thread_pool*&, std::_Sp_alloc_shared_tag<std::allocator<void> >, unsigned long&, unsigned long&, std::function<void ()>&, std::function<void ()>&)
FUNC 218e0 13 0 std::enable_if<!std::__shared_ptr<spdlog::details::thread_pool, (__gnu_cxx::_Lock_policy)2>::__has_esft_base<spdlog::details::thread_pool, void>::value, void>::type std::__shared_ptr<spdlog::details::thread_pool, (__gnu_cxx::_Lock_policy)2>::_M_enable_shared_from_this_with<spdlog::details::thread_pool, spdlog::details::thread_pool>(spdlog::details::thread_pool*)
FUNC 218f4 1e 0 spdlog::init_thread_pool(unsigned long, unsigned long)::{lambda()#1} const& std::_Any_data::_M_access<spdlog::init_thread_pool(unsigned long, unsigned long)::{lambda()#1}>() const
FUNC 21912 12 0 spdlog::init_thread_pool(unsigned long, unsigned long)::{lambda()#1} const* std::__addressof<spdlog::init_thread_pool(unsigned long, unsigned long)::{lambda()#1} const>(spdlog::init_thread_pool(unsigned long, unsigned long)::{lambda()#1} const&)
FUNC 21924 12 0 spdlog::init_thread_pool(unsigned long, unsigned long)::{lambda()#1}& std::forward<spdlog::init_thread_pool(unsigned long, unsigned long)::{lambda()#1}&>(std::remove_reference<spdlog::init_thread_pool(unsigned long, unsigned long)::{lambda()#1}&>::type&)
FUNC 21936 27 0 void std::__invoke_impl<void, spdlog::init_thread_pool(unsigned long, unsigned long)::{lambda()#1}&>(std::__invoke_other, spdlog::init_thread_pool(unsigned long, unsigned long)::{lambda()#1}&)
FUNC 2195d 35 0 void std::_Function_base::_Base_manager<spdlog::init_thread_pool(unsigned long, unsigned long)::{lambda()#1}>::_M_init_functor<spdlog::init_thread_pool(unsigned long, unsigned long)::{lambda()#1} const&>(std::_Any_data&, spdlog::init_thread_pool(unsigned long, unsigned long)::{lambda()#1} const&)
FUNC 21992 1f 0 std::_Function_base::_Base_manager<spdlog::init_thread_pool(unsigned long, unsigned long)::{lambda()#1}>::_M_destroy(std::_Any_data&, std::integral_constant<bool, true>)
FUNC 219b2 1e 0 spdlog::init_thread_pool(unsigned long, unsigned long)::{lambda()#2} const& std::_Any_data::_M_access<spdlog::init_thread_pool(unsigned long, unsigned long)::{lambda()#2}>() const
FUNC 219d0 12 0 spdlog::init_thread_pool(unsigned long, unsigned long)::{lambda()#2} const* std::__addressof<spdlog::init_thread_pool(unsigned long, unsigned long)::{lambda()#2} const>(spdlog::init_thread_pool(unsigned long, unsigned long)::{lambda()#2} const&)
FUNC 219e2 12 0 spdlog::init_thread_pool(unsigned long, unsigned long)::{lambda()#2}& std::forward<spdlog::init_thread_pool(unsigned long, unsigned long)::{lambda()#2}&>(std::remove_reference<spdlog::init_thread_pool(unsigned long, unsigned long)::{lambda()#2}&>::type&)
FUNC 219f4 27 0 void std::__invoke_impl<void, spdlog::init_thread_pool(unsigned long, unsigned long)::{lambda()#2}&>(std::__invoke_other, spdlog::init_thread_pool(unsigned long, unsigned long)::{lambda()#2}&)
FUNC 21a1b 35 0 void std::_Function_base::_Base_manager<spdlog::init_thread_pool(unsigned long, unsigned long)::{lambda()#2}>::_M_init_functor<spdlog::init_thread_pool(unsigned long, unsigned long)::{lambda()#2} const&>(std::_Any_data&, spdlog::init_thread_pool(unsigned long, unsigned long)::{lambda()#2} const&)
FUNC 21a50 1f 0 std::_Function_base::_Base_manager<spdlog::init_thread_pool(unsigned long, unsigned long)::{lambda()#2}>::_M_destroy(std::_Any_data&, std::integral_constant<bool, true>)
FUNC 21a70 156 0 std::__shared_count<(__gnu_cxx::_Lock_policy)2>::__shared_count<spdlog::sinks::ansicolor_stdout_sink<spdlog::details::console_mutex>, std::allocator<void>>(spdlog::sinks::ansicolor_stdout_sink<spdlog::details::console_mutex>*&, std::_Sp_alloc_shared_tag<std::allocator<void> >)
FUNC 21bc6 13 0 std::enable_if<!std::__shared_ptr<spdlog::sinks::ansicolor_stdout_sink<spdlog::details::console_mutex>, (__gnu_cxx::_Lock_policy)2>::__has_esft_base<spdlog::sinks::ansicolor_stdout_sink<spdlog::details::console_mutex>, void>::value, void>::type std::__shared_ptr<spdlog::sinks::ansicolor_stdout_sink<spdlog::details::console_mutex>, (__gnu_cxx::_Lock_policy)2>::_M_enable_shared_from_this_with<spdlog::sinks::ansicolor_stdout_sink<spdlog::details::console_mutex>, spdlog::sinks::ansicolor_stdout_sink<spdlog::details::console_mutex> >(spdlog::sinks::ansicolor_stdout_sink<spdlog::details::console_mutex>*)
FUNC 21bda 103 0 std::vector<std::shared_ptr<spdlog::sinks::sink>, std::allocator<std::shared_ptr<spdlog::sinks::sink> > >::_M_check_len(unsigned long, char const*) const
FUNC 21cdd 46 0 __gnu_cxx::__normal_iterator<std::shared_ptr<spdlog::sinks::sink>*, std::vector<std::shared_ptr<spdlog::sinks::sink>, std::allocator<std::shared_ptr<spdlog::sinks::sink> > > >::difference_type __gnu_cxx::operator-<std::shared_ptr<spdlog::sinks::sink>*, std::vector<std::shared_ptr<spdlog::sinks::sink>, std::allocator<std::shared_ptr<spdlog::sinks::sink> > > >(__gnu_cxx::__normal_iterator<std::shared_ptr<spdlog::sinks::sink>*, std::vector<std::shared_ptr<spdlog::sinks::sink>, std::allocator<std::shared_ptr<spdlog::sinks::sink> > > > const&, __gnu_cxx::__normal_iterator<std::shared_ptr<spdlog::sinks::sink>*, std::vector<std::shared_ptr<spdlog::sinks::sink>, std::allocator<std::shared_ptr<spdlog::sinks::sink> > > > const&)
FUNC 21d23 36 0 std::vector<std::shared_ptr<spdlog::sinks::sink>, std::allocator<std::shared_ptr<spdlog::sinks::sink> > >::_S_relocate(std::shared_ptr<spdlog::sinks::sink>*, std::shared_ptr<spdlog::sinks::sink>*, std::shared_ptr<spdlog::sinks::sink>*, std::allocator<std::shared_ptr<spdlog::sinks::sink> >&)
FUNC 21d5a 12 0 __gnu_cxx::__normal_iterator<std::shared_ptr<spdlog::sinks::sink>*, std::vector<std::shared_ptr<spdlog::sinks::sink>, std::allocator<std::shared_ptr<spdlog::sinks::sink> > > >::base() const
FUNC 21d6c 69 0 __gnu_cxx::__normal_iterator<std::shared_ptr<spdlog::sinks::sink>*, std::vector<std::shared_ptr<spdlog::sinks::sink>, std::allocator<std::shared_ptr<spdlog::sinks::sink> > > >::operator-(long) const
FUNC 21dd6 15 0 __gnu_cxx::__normal_iterator<std::shared_ptr<spdlog::sinks::sink>*, std::vector<std::shared_ptr<spdlog::sinks::sink>, std::allocator<std::shared_ptr<spdlog::sinks::sink> > > >::operator*() const
FUNC 21dec 1bd 0 std::__shared_count<(__gnu_cxx::_Lock_policy)2>::__shared_count<spdlog::sinks::daily_file_sink<std::mutex, spdlog::sinks::daily_filename_calculator>, std::allocator<void>, std::__cxx11::basic_string<char, std::char_traits<char>, std::allocator<char> >, int const&, int const&>(spdlog::sinks::daily_file_sink<std::mutex, spdlog::sinks::daily_filename_calculator>*&, std::_Sp_alloc_shared_tag<std::allocator<void> >, std::__cxx11::basic_string<char, std::char_traits<char>, std::allocator<char> >&&, int const&, int const&)
FUNC 21faa 13 0 std::enable_if<!std::__shared_ptr<spdlog::sinks::daily_file_sink<std::mutex, spdlog::sinks::daily_filename_calculator>, (__gnu_cxx::_Lock_policy)2>::__has_esft_base<spdlog::sinks::daily_file_sink<std::mutex, spdlog::sinks::daily_filename_calculator>, void>::value, void>::type std::__shared_ptr<spdlog::sinks::daily_file_sink<std::mutex, spdlog::sinks::daily_filename_calculator>, (__gnu_cxx::_Lock_policy)2>::_M_enable_shared_from_this_with<spdlog::sinks::daily_file_sink<std::mutex, spdlog::sinks::daily_filename_calculator>, spdlog::sinks::daily_file_sink<std::mutex, spdlog::sinks::daily_filename_calculator> >(spdlog::sinks::daily_file_sink<std::mutex, spdlog::sinks::daily_filename_calculator>*)
FUNC 21fbe 1bd 0 std::__shared_count<(__gnu_cxx::_Lock_policy)2>::__shared_count<spdlog::sinks::rotating_file_sink<std::mutex>, std::allocator<void>, std::__cxx11::basic_string<char, std::char_traits<char>, std::allocator<char> >, unsigned long const&, unsigned long const&>(spdlog::sinks::rotating_file_sink<std::mutex>*&, std::_Sp_alloc_shared_tag<std::allocator<void> >, std::__cxx11::basic_string<char, std::char_traits<char>, std::allocator<char> >&&, unsigned long const&, unsigned long const&)
FUNC 2217c 13 0 std::enable_if<!std::__shared_ptr<spdlog::sinks::rotating_file_sink<std::mutex>, (__gnu_cxx::_Lock_policy)2>::__has_esft_base<spdlog::sinks::rotating_file_sink<std::mutex>, void>::value, void>::type std::__shared_ptr<spdlog::sinks::rotating_file_sink<std::mutex>, (__gnu_cxx::_Lock_policy)2>::_M_enable_shared_from_this_with<spdlog::sinks::rotating_file_sink<std::mutex>, spdlog::sinks::rotating_file_sink<std::mutex> >(spdlog::sinks::rotating_file_sink<std::mutex>*)
FUNC 22190 20a 0 std::__shared_count<(__gnu_cxx::_Lock_policy)2>::__shared_count<spdlog::async_logger, std::allocator<void>, std::__cxx11::basic_string<char, std::char_traits<char>, std::allocator<char> > const&, __gnu_cxx::__normal_iterator<std::shared_ptr<spdlog::sinks::sink>*, std::vector<std::shared_ptr<spdlog::sinks::sink>, std::allocator<std::shared_ptr<spdlog::sinks::sink> > > >, __gnu_cxx::__normal_iterator<std::shared_ptr<spdlog::sinks::sink>*, std::vector<std::shared_ptr<spdlog::sinks::sink>, std::allocator<std::shared_ptr<spdlog::sinks::sink> > > >, std::shared_ptr<spdlog::details::thread_pool>, spdlog::async_overflow_policy>(spdlog::async_logger*&, std::_Sp_alloc_shared_tag<std::allocator<void> >, std::__cxx11::basic_string<char, std::char_traits<char>, std::allocator<char> > const&, __gnu_cxx::__normal_iterator<std::shared_ptr<spdlog::sinks::sink>*, std::vector<std::shared_ptr<spdlog::sinks::sink>, std::allocator<std::shared_ptr<spdlog::sinks::sink> > > >&&, __gnu_cxx::__normal_iterator<std::shared_ptr<spdlog::sinks::sink>*, std::vector<std::shared_ptr<spdlog::sinks::sink>, std::allocator<std::shared_ptr<spdlog::sinks::sink> > > >&&, std::shared_ptr<spdlog::details::thread_pool>&&, spdlog::async_overflow_policy&&)
FUNC 2239a 68 0 std::enable_if<std::__shared_ptr<spdlog::async_logger, (__gnu_cxx::_Lock_policy)2>::__has_esft_base<spdlog::async_logger, void>::value, void>::type std::__shared_ptr<spdlog::async_logger, (__gnu_cxx::_Lock_policy)2>::_M_enable_shared_from_this_with<spdlog::async_logger, spdlog::async_logger>(spdlog::async_logger*)
FUNC 22402 79 0 std::enable_if<std::__and_<std::__not_<std::__is_tuple_like<spdlog::logger*> >, std::is_move_constructible<spdlog::logger*>, std::is_move_assignable<spdlog::logger*> >::value, void>::type std::swap<spdlog::logger*>(spdlog::logger*&, spdlog::logger*&)
FUNC 2247c 1bd 0 std::__shared_count<(__gnu_cxx::_Lock_policy)2>::__shared_count<spdlog::logger, std::allocator<void>, std::__cxx11::basic_string<char, std::char_traits<char>, std::allocator<char> > const&, __gnu_cxx::__normal_iterator<std::shared_ptr<spdlog::sinks::sink>*, std::vector<std::shared_ptr<spdlog::sinks::sink>, std::allocator<std::shared_ptr<spdlog::sinks::sink> > > >, __gnu_cxx::__normal_iterator<std::shared_ptr<spdlog::sinks::sink>*, std::vector<std::shared_ptr<spdlog::sinks::sink>, std::allocator<std::shared_ptr<spdlog::sinks::sink> > > > >(spdlog::logger*&, std::_Sp_alloc_shared_tag<std::allocator<void> >, std::__cxx11::basic_string<char, std::char_traits<char>, std::allocator<char> > const&, __gnu_cxx::__normal_iterator<std::shared_ptr<spdlog::sinks::sink>*, std::vector<std::shared_ptr<spdlog::sinks::sink>, std::allocator<std::shared_ptr<spdlog::sinks::sink> > > >&&, __gnu_cxx::__normal_iterator<std::shared_ptr<spdlog::sinks::sink>*, std::vector<std::shared_ptr<spdlog::sinks::sink>, std::allocator<std::shared_ptr<spdlog::sinks::sink> > > >&&)
FUNC 2263a 13 0 std::enable_if<!std::__shared_ptr<spdlog::logger, (__gnu_cxx::_Lock_policy)2>::__has_esft_base<spdlog::logger, void>::value, void>::type std::__shared_ptr<spdlog::logger, (__gnu_cxx::_Lock_policy)2>::_M_enable_shared_from_this_with<spdlog::logger, spdlog::logger>(spdlog::logger*)
FUNC 2264d 12 0 std::shared_ptr<spdlog::sinks::sink>* std::__addressof<std::shared_ptr<spdlog::sinks::sink> >(std::shared_ptr<spdlog::sinks::sink>&)
FUNC 2265f 1f 0 void std::_Destroy<std::shared_ptr<spdlog::sinks::sink> >(std::shared_ptr<spdlog::sinks::sink>*)
FUNC 2267e 12 0 spdlog::details::log_msg_buffer* std::__addressof<spdlog::details::log_msg_buffer>(spdlog::details::log_msg_buffer&)
FUNC 22690 1f 0 void std::_Destroy<spdlog::details::log_msg_buffer>(spdlog::details::log_msg_buffer*)
FUNC 226af 81 0 std::vector<std::shared_ptr<spdlog::sinks::sink>, std::allocator<std::shared_ptr<spdlog::sinks::sink> > >::_S_max_size(std::allocator<std::shared_ptr<spdlog::sinks::sink> > const&)
FUNC 22730 1e 0 std::_Head_base<1ul, std::__cxx11::basic_string<char, std::char_traits<char>, std::allocator<char> >&, false>::_Head_base(std::__cxx11::basic_string<char, std::char_traits<char>, std::allocator<char> >&)
FUNC 2274e 15 0 std::_Head_base<1ul, std::__cxx11::basic_string<char, std::char_traits<char>, std::allocator<char> >&, false>::_M_head(std::_Head_base<1ul, std::__cxx11::basic_string<char, std::char_traits<char>, std::allocator<char> >&, false>&)
FUNC 22763 12 0 std::_Head_base<1ul, std::__cxx11::basic_string<char, std::char_traits<char>, std::allocator<char> >, false>::_M_head(std::_Head_base<1ul, std::__cxx11::basic_string<char, std::char_traits<char>, std::allocator<char> >, false>&)
FUNC 22775 59 0 std::__allocated_ptr<std::allocator<std::_Sp_counted_ptr_inplace<spdlog::details::thread_pool, std::allocator<void>, (__gnu_cxx::_Lock_policy)2> > > std::__allocate_guarded<std::allocator<std::_Sp_counted_ptr_inplace<spdlog::details::thread_pool, std::allocator<void>, (__gnu_cxx::_Lock_policy)2> > >(std::allocator<std::_Sp_counted_ptr_inplace<spdlog::details::thread_pool, std::allocator<void>, (__gnu_cxx::_Lock_policy)2> >&)
FUNC 227ce 57 0 std::__allocated_ptr<std::allocator<std::_Sp_counted_ptr_inplace<spdlog::details::thread_pool, std::allocator<void>, (__gnu_cxx::_Lock_policy)2> > >::~__allocated_ptr()
FUNC 22826 22 0 std::__allocated_ptr<std::allocator<std::_Sp_counted_ptr_inplace<spdlog::details::thread_pool, std::allocator<void>, (__gnu_cxx::_Lock_policy)2> > >::get()
FUNC 22848 130 0 std::_Sp_counted_ptr_inplace<spdlog::details::thread_pool, std::allocator<void>, (__gnu_cxx::_Lock_policy)2>::_Sp_counted_ptr_inplace<unsigned long&, unsigned long&, std::function<void ()>&, std::function<void ()>&>(std::allocator<void>, unsigned long&, unsigned long&, std::function<void ()>&, std::function<void ()>&)
FUNC 22978 22 0 std::__allocated_ptr<std::allocator<std::_Sp_counted_ptr_inplace<spdlog::details::thread_pool, std::allocator<void>, (__gnu_cxx::_Lock_policy)2> > >::operator=(decltype(nullptr))
FUNC 2299a 22 0 std::_Sp_counted_ptr_inplace<spdlog::details::thread_pool, std::allocator<void>, (__gnu_cxx::_Lock_policy)2>::_M_ptr()
FUNC 229bc 12 0 spdlog::init_thread_pool(unsigned long, unsigned long)::{lambda()#1} const& std::forward<spdlog::init_thread_pool(unsigned long, unsigned long)::{lambda()#1} const&>(std::remove_reference<spdlog::init_thread_pool(unsigned long, unsigned long)::{lambda()#1} const&>::type&)
FUNC 229ce 3c 0 void std::_Function_base::_Base_manager<spdlog::init_thread_pool(unsigned long, unsigned long)::{lambda()#1}>::_M_create<spdlog::init_thread_pool(unsigned long, unsigned long)::{lambda()#1} const&>(std::_Any_data&, spdlog::init_thread_pool(unsigned long, unsigned long)::{lambda()#1} const&, std::integral_constant<bool, true>)
FUNC 22a0a 1e 0 spdlog::init_thread_pool(unsigned long, unsigned long)::{lambda()#1}& std::_Any_data::_M_access<spdlog::init_thread_pool(unsigned long, unsigned long)::{lambda()#1}>()
FUNC 22a28 12 0 spdlog::init_thread_pool(unsigned long, unsigned long)::{lambda()#2} const& std::forward<spdlog::init_thread_pool(unsigned long, unsigned long)::{lambda()#2} const&>(std::remove_reference<spdlog::init_thread_pool(unsigned long, unsigned long)::{lambda()#2} const&>::type&)
FUNC 22a3a 3c 0 void std::_Function_base::_Base_manager<spdlog::init_thread_pool(unsigned long, unsigned long)::{lambda()#2}>::_M_create<spdlog::init_thread_pool(unsigned long, unsigned long)::{lambda()#2} const&>(std::_Any_data&, spdlog::init_thread_pool(unsigned long, unsigned long)::{lambda()#2} const&, std::integral_constant<bool, true>)
FUNC 22a76 1e 0 spdlog::init_thread_pool(unsigned long, unsigned long)::{lambda()#2}& std::_Any_data::_M_access<spdlog::init_thread_pool(unsigned long, unsigned long)::{lambda()#2}>()
FUNC 22a94 59 0 std::__allocated_ptr<std::allocator<std::_Sp_counted_ptr_inplace<spdlog::sinks::ansicolor_stdout_sink<spdlog::details::console_mutex>, std::allocator<void>, (__gnu_cxx::_Lock_policy)2> > > std::__allocate_guarded<std::allocator<std::_Sp_counted_ptr_inplace<spdlog::sinks::ansicolor_stdout_sink<spdlog::details::console_mutex>, std::allocator<void>, (__gnu_cxx::_Lock_policy)2> > >(std::allocator<std::_Sp_counted_ptr_inplace<spdlog::sinks::ansicolor_stdout_sink<spdlog::details::console_mutex>, std::allocator<void>, (__gnu_cxx::_Lock_policy)2> >&)
FUNC 22aee 57 0 std::__allocated_ptr<std::allocator<std::_Sp_counted_ptr_inplace<spdlog::sinks::ansicolor_stdout_sink<spdlog::details::console_mutex>, std::allocator<void>, (__gnu_cxx::_Lock_policy)2> > >::~__allocated_ptr()
FUNC 22b46 22 0 std::__allocated_ptr<std::allocator<std::_Sp_counted_ptr_inplace<spdlog::sinks::ansicolor_stdout_sink<spdlog::details::console_mutex>, std::allocator<void>, (__gnu_cxx::_Lock_policy)2> > >::get()
FUNC 22b68 82 0 std::_Sp_counted_ptr_inplace<spdlog::sinks::ansicolor_stdout_sink<spdlog::details::console_mutex>, std::allocator<void>, (__gnu_cxx::_Lock_policy)2>::_Sp_counted_ptr_inplace<>(std::allocator<void>)
FUNC 22bea 22 0 std::__allocated_ptr<std::allocator<std::_Sp_counted_ptr_inplace<spdlog::sinks::ansicolor_stdout_sink<spdlog::details::console_mutex>, std::allocator<void>, (__gnu_cxx::_Lock_policy)2> > >::operator=(decltype(nullptr))
FUNC 22c0c 22 0 std::_Sp_counted_ptr_inplace<spdlog::sinks::ansicolor_stdout_sink<spdlog::details::console_mutex>, std::allocator<void>, (__gnu_cxx::_Lock_policy)2>::_M_ptr()
FUNC 22c2e 26 0 std::vector<std::shared_ptr<spdlog::sinks::sink>, std::allocator<std::shared_ptr<spdlog::sinks::sink> > >::max_size() const
FUNC 22c54 27 0 std::vector<std::shared_ptr<spdlog::sinks::sink>, std::allocator<std::shared_ptr<spdlog::sinks::sink> > >::size() const
FUNC 22c7b 67 0 std::shared_ptr<spdlog::sinks::sink>* std::__relocate_a<std::shared_ptr<spdlog::sinks::sink>*, std::shared_ptr<spdlog::sinks::sink>*, std::allocator<std::shared_ptr<spdlog::sinks::sink> > >(std::shared_ptr<spdlog::sinks::sink>*, std::shared_ptr<spdlog::sinks::sink>*, std::shared_ptr<spdlog::sinks::sink>*, std::allocator<std::shared_ptr<spdlog::sinks::sink> >&)
FUNC 22ce2 59 0 std::__allocated_ptr<std::allocator<std::_Sp_counted_ptr_inplace<spdlog::sinks::daily_file_sink<std::mutex, spdlog::sinks::daily_filename_calculator>, std::allocator<void>, (__gnu_cxx::_Lock_policy)2> > > std::__allocate_guarded<std::allocator<std::_Sp_counted_ptr_inplace<spdlog::sinks::daily_file_sink<std::mutex, spdlog::sinks::daily_filename_calculator>, std::allocator<void>, (__gnu_cxx::_Lock_policy)2> > >(std::allocator<std::_Sp_counted_ptr_inplace<spdlog::sinks::daily_file_sink<std::mutex, spdlog::sinks::daily_filename_calculator>, std::allocator<void>, (__gnu_cxx::_Lock_policy)2> >&)
FUNC 22d3c 57 0 std::__allocated_ptr<std::allocator<std::_Sp_counted_ptr_inplace<spdlog::sinks::daily_file_sink<std::mutex, spdlog::sinks::daily_filename_calculator>, std::allocator<void>, (__gnu_cxx::_Lock_policy)2> > >::~__allocated_ptr()
FUNC 22d94 22 0 std::__allocated_ptr<std::allocator<std::_Sp_counted_ptr_inplace<spdlog::sinks::daily_file_sink<std::mutex, spdlog::sinks::daily_filename_calculator>, std::allocator<void>, (__gnu_cxx::_Lock_policy)2> > >::get()
FUNC 22db6 103 0 std::_Sp_counted_ptr_inplace<spdlog::sinks::daily_file_sink<std::mutex, spdlog::sinks::daily_filename_calculator>, std::allocator<void>, (__gnu_cxx::_Lock_policy)2>::_Sp_counted_ptr_inplace<std::__cxx11::basic_string<char, std::char_traits<char>, std::allocator<char> >, int const&, int const&>(std::allocator<void>, std::__cxx11::basic_string<char, std::char_traits<char>, std::allocator<char> >&&, int const&, int const&)
FUNC 22eba 22 0 std::__allocated_ptr<std::allocator<std::_Sp_counted_ptr_inplace<spdlog::sinks::daily_file_sink<std::mutex, spdlog::sinks::daily_filename_calculator>, std::allocator<void>, (__gnu_cxx::_Lock_policy)2> > >::operator=(decltype(nullptr))
FUNC 22edc 22 0 std::_Sp_counted_ptr_inplace<spdlog::sinks::daily_file_sink<std::mutex, spdlog::sinks::daily_filename_calculator>, std::allocator<void>, (__gnu_cxx::_Lock_policy)2>::_M_ptr()
FUNC 22efe 59 0 std::__allocated_ptr<std::allocator<std::_Sp_counted_ptr_inplace<spdlog::sinks::rotating_file_sink<std::mutex>, std::allocator<void>, (__gnu_cxx::_Lock_policy)2> > > std::__allocate_guarded<std::allocator<std::_Sp_counted_ptr_inplace<spdlog::sinks::rotating_file_sink<std::mutex>, std::allocator<void>, (__gnu_cxx::_Lock_policy)2> > >(std::allocator<std::_Sp_counted_ptr_inplace<spdlog::sinks::rotating_file_sink<std::mutex>, std::allocator<void>, (__gnu_cxx::_Lock_policy)2> >&)
FUNC 22f58 57 0 std::__allocated_ptr<std::allocator<std::_Sp_counted_ptr_inplace<spdlog::sinks::rotating_file_sink<std::mutex>, std::allocator<void>, (__gnu_cxx::_Lock_policy)2> > >::~__allocated_ptr()
FUNC 22fb0 22 0 std::__allocated_ptr<std::allocator<std::_Sp_counted_ptr_inplace<spdlog::sinks::rotating_file_sink<std::mutex>, std::allocator<void>, (__gnu_cxx::_Lock_policy)2> > >::get()
FUNC 22fd2 103 0 std::_Sp_counted_ptr_inplace<spdlog::sinks::rotating_file_sink<std::mutex>, std::allocator<void>, (__gnu_cxx::_Lock_policy)2>::_Sp_counted_ptr_inplace<std::__cxx11::basic_string<char, std::char_traits<char>, std::allocator<char> >, unsigned long const&, unsigned long const&>(std::allocator<void>, std::__cxx11::basic_string<char, std::char_traits<char>, std::allocator<char> >&&, unsigned long const&, unsigned long const&)
FUNC 230d6 22 0 std::__allocated_ptr<std::allocator<std::_Sp_counted_ptr_inplace<spdlog::sinks::rotating_file_sink<std::mutex>, std::allocator<void>, (__gnu_cxx::_Lock_policy)2> > >::operator=(decltype(nullptr))
FUNC 230f8 22 0 std::_Sp_counted_ptr_inplace<spdlog::sinks::rotating_file_sink<std::mutex>, std::allocator<void>, (__gnu_cxx::_Lock_policy)2>::_M_ptr()
FUNC 2311a 59 0 std::__allocated_ptr<std::allocator<std::_Sp_counted_ptr_inplace<spdlog::async_logger, std::allocator<void>, (__gnu_cxx::_Lock_policy)2> > > std::__allocate_guarded<std::allocator<std::_Sp_counted_ptr_inplace<spdlog::async_logger, std::allocator<void>, (__gnu_cxx::_Lock_policy)2> > >(std::allocator<std::_Sp_counted_ptr_inplace<spdlog::async_logger, std::allocator<void>, (__gnu_cxx::_Lock_policy)2> >&)
FUNC 23174 57 0 std::__allocated_ptr<std::allocator<std::_Sp_counted_ptr_inplace<spdlog::async_logger, std::allocator<void>, (__gnu_cxx::_Lock_policy)2> > >::~__allocated_ptr()
FUNC 231cc 22 0 std::__allocated_ptr<std::allocator<std::_Sp_counted_ptr_inplace<spdlog::async_logger, std::allocator<void>, (__gnu_cxx::_Lock_policy)2> > >::get()
FUNC 231ee 16f 0 std::_Sp_counted_ptr_inplace<spdlog::async_logger, std::allocator<void>, (__gnu_cxx::_Lock_policy)2>::_Sp_counted_ptr_inplace<std::__cxx11::basic_string<char, std::char_traits<char>, std::allocator<char> > const&, __gnu_cxx::__normal_iterator<std::shared_ptr<spdlog::sinks::sink>*, std::vector<std::shared_ptr<spdlog::sinks::sink>, std::allocator<std::shared_ptr<spdlog::sinks::sink> > > >, __gnu_cxx::__normal_iterator<std::shared_ptr<spdlog::sinks::sink>*, std::vector<std::shared_ptr<spdlog::sinks::sink>, std::allocator<std::shared_ptr<spdlog::sinks::sink> > > >, std::shared_ptr<spdlog::details::thread_pool>, spdlog::async_overflow_policy>(std::allocator<void>, std::__cxx11::basic_string<char, std::char_traits<char>, std::allocator<char> > const&, __gnu_cxx::__normal_iterator<std::shared_ptr<spdlog::sinks::sink>*, std::vector<std::shared_ptr<spdlog::sinks::sink>, std::allocator<std::shared_ptr<spdlog::sinks::sink> > > >&&, __gnu_cxx::__normal_iterator<std::shared_ptr<spdlog::sinks::sink>*, std::vector<std::shared_ptr<spdlog::sinks::sink>, std::allocator<std::shared_ptr<spdlog::sinks::sink> > > >&&, std::shared_ptr<spdlog::details::thread_pool>&&, spdlog::async_overflow_policy&&)
FUNC 2335e 22 0 std::__allocated_ptr<std::allocator<std::_Sp_counted_ptr_inplace<spdlog::async_logger, std::allocator<void>, (__gnu_cxx::_Lock_policy)2> > >::operator=(decltype(nullptr))
FUNC 23380 22 0 std::_Sp_counted_ptr_inplace<spdlog::async_logger, std::allocator<void>, (__gnu_cxx::_Lock_policy)2>::_M_ptr()
FUNC 233a2 16 0 std::__enable_shared_from_this_base(std::__shared_count<(__gnu_cxx::_Lock_policy)2> const&, std::enable_shared_from_this<spdlog::async_logger> const*)
FUNC 233b8 32 0 void std::enable_shared_from_this<spdlog::async_logger>::_M_weak_assign<spdlog::async_logger>(spdlog::async_logger*, std::__shared_count<(__gnu_cxx::_Lock_policy)2> const&) const
FUNC 233ea 12 0 std::remove_reference<spdlog::logger*&>::type&& std::move<spdlog::logger*&>(spdlog::logger*&)
FUNC 233fc 59 0 std::__allocated_ptr<std::allocator<std::_Sp_counted_ptr_inplace<spdlog::logger, std::allocator<void>, (__gnu_cxx::_Lock_policy)2> > > std::__allocate_guarded<std::allocator<std::_Sp_counted_ptr_inplace<spdlog::logger, std::allocator<void>, (__gnu_cxx::_Lock_policy)2> > >(std::allocator<std::_Sp_counted_ptr_inplace<spdlog::logger, std::allocator<void>, (__gnu_cxx::_Lock_policy)2> >&)
FUNC 23456 57 0 std::__allocated_ptr<std::allocator<std::_Sp_counted_ptr_inplace<spdlog::logger, std::allocator<void>, (__gnu_cxx::_Lock_policy)2> > >::~__allocated_ptr()
FUNC 234ae 22 0 std::__allocated_ptr<std::allocator<std::_Sp_counted_ptr_inplace<spdlog::logger, std::allocator<void>, (__gnu_cxx::_Lock_policy)2> > >::get()
FUNC 234d0 103 0 std::_Sp_counted_ptr_inplace<spdlog::logger, std::allocator<void>, (__gnu_cxx::_Lock_policy)2>::_Sp_counted_ptr_inplace<std::__cxx11::basic_string<char, std::char_traits<char>, std::allocator<char> > const&, __gnu_cxx::__normal_iterator<std::shared_ptr<spdlog::sinks::sink>*, std::vector<std::shared_ptr<spdlog::sinks::sink>, std::allocator<std::shared_ptr<spdlog::sinks::sink> > > >, __gnu_cxx::__normal_iterator<std::shared_ptr<spdlog::sinks::sink>*, std::vector<std::shared_ptr<spdlog::sinks::sink>, std::allocator<std::shared_ptr<spdlog::sinks::sink> > > > >(std::allocator<void>, std::__cxx11::basic_string<char, std::char_traits<char>, std::allocator<char> > const&, __gnu_cxx::__normal_iterator<std::shared_ptr<spdlog::sinks::sink>*, std::vector<std::shared_ptr<spdlog::sinks::sink>, std::allocator<std::shared_ptr<spdlog::sinks::sink> > > >&&, __gnu_cxx::__normal_iterator<std::shared_ptr<spdlog::sinks::sink>*, std::vector<std::shared_ptr<spdlog::sinks::sink>, std::allocator<std::shared_ptr<spdlog::sinks::sink> > > >&&)
FUNC 235d4 22 0 std::__allocated_ptr<std::allocator<std::_Sp_counted_ptr_inplace<spdlog::logger, std::allocator<void>, (__gnu_cxx::_Lock_policy)2> > >::operator=(decltype(nullptr))
FUNC 235f6 22 0 std::_Sp_counted_ptr_inplace<spdlog::logger, std::allocator<void>, (__gnu_cxx::_Lock_policy)2>::_M_ptr()
FUNC 23618 37 0 std::_Sp_counted_base<(__gnu_cxx::_Lock_policy)2>::_Sp_counted_base()
FUNC 23650 6b 0 std::__new_allocator<std::shared_ptr<spdlog::sinks::sink> >::allocate(unsigned long, void const*)
FUNC 236bc f 0 std::__new_allocator<std::_Sp_counted_ptr_inplace<spdlog::details::thread_pool, std::allocator<void>, (__gnu_cxx::_Lock_policy)2> >::~__new_allocator()
FUNC 236cc 3a 0 std::__allocated_ptr<std::allocator<std::_Sp_counted_ptr_inplace<spdlog::details::thread_pool, std::allocator<void>, (__gnu_cxx::_Lock_policy)2> > >::__allocated_ptr(std::allocator<std::_Sp_counted_ptr_inplace<spdlog::details::thread_pool, std::allocator<void>, (__gnu_cxx::_Lock_policy)2> >&, std::_Sp_counted_ptr_inplace<spdlog::details::thread_pool, std::allocator<void>, (__gnu_cxx::_Lock_policy)2>*)
FUNC 23706 12 0 std::_Sp_counted_ptr_inplace<spdlog::details::thread_pool, std::allocator<void>, (__gnu_cxx::_Lock_policy)2>* std::__to_address<std::_Sp_counted_ptr_inplace<spdlog::details::thread_pool, std::allocator<void>, (__gnu_cxx::_Lock_policy)2> >(std::_Sp_counted_ptr_inplace<spdlog::details::thread_pool, std::allocator<void>, (__gnu_cxx::_Lock_policy)2>*)
FUNC 23718 26 0 std::_Sp_counted_ptr_inplace<spdlog::details::thread_pool, std::allocator<void>, (__gnu_cxx::_Lock_policy)2>::_Impl::_Impl(std::allocator<void>)
FUNC 2373e 1e 0 __gnu_cxx::__aligned_buffer<spdlog::details::thread_pool>::_M_ptr()
FUNC 2375c f 0 std::__new_allocator<std::_Sp_counted_ptr_inplace<spdlog::sinks::ansicolor_stdout_sink<spdlog::details::console_mutex>, std::allocator<void>, (__gnu_cxx::_Lock_policy)2> >::~__new_allocator()
FUNC 2376c 3a 0 std::__allocated_ptr<std::allocator<std::_Sp_counted_ptr_inplace<spdlog::sinks::ansicolor_stdout_sink<spdlog::details::console_mutex>, std::allocator<void>, (__gnu_cxx::_Lock_policy)2> > >::__allocated_ptr(std::allocator<std::_Sp_counted_ptr_inplace<spdlog::sinks::ansicolor_stdout_sink<spdlog::details::console_mutex>, std::allocator<void>, (__gnu_cxx::_Lock_policy)2> >&, std::_Sp_counted_ptr_inplace<spdlog::sinks::ansicolor_stdout_sink<spdlog::details::console_mutex>, std::allocator<void>, (__gnu_cxx::_Lock_policy)2>*)
FUNC 237a6 12 0 std::_Sp_counted_ptr_inplace<spdlog::sinks::ansicolor_stdout_sink<spdlog::details::console_mutex>, std::allocator<void>, (__gnu_cxx::_Lock_policy)2>* std::__to_address<std::_Sp_counted_ptr_inplace<spdlog::sinks::ansicolor_stdout_sink<spdlog::details::console_mutex>, std::allocator<void>, (__gnu_cxx::_Lock_policy)2> >(std::_Sp_counted_ptr_inplace<spdlog::sinks::ansicolor_stdout_sink<spdlog::details::console_mutex>, std::allocator<void>, (__gnu_cxx::_Lock_policy)2>*)
FUNC 237b8 26 0 std::_Sp_counted_ptr_inplace<spdlog::sinks::ansicolor_stdout_sink<spdlog::details::console_mutex>, std::allocator<void>, (__gnu_cxx::_Lock_policy)2>::_Impl::_Impl(std::allocator<void>)
FUNC 237de 1e 0 __gnu_cxx::__aligned_buffer<spdlog::sinks::ansicolor_stdout_sink<spdlog::details::console_mutex> >::_M_ptr()
FUNC 237fc 12 0 std::_Vector_base<std::shared_ptr<spdlog::sinks::sink>, std::allocator<std::shared_ptr<spdlog::sinks::sink> > >::_M_get_Tp_allocator() const
FUNC 2380e 12 0 std::shared_ptr<spdlog::sinks::sink>* std::__niter_base<std::shared_ptr<spdlog::sinks::sink>*>(std::shared_ptr<spdlog::sinks::sink>*)
FUNC 23820 75 0 std::shared_ptr<spdlog::sinks::sink>* std::__relocate_a_1<std::shared_ptr<spdlog::sinks::sink>*, std::shared_ptr<spdlog::sinks::sink>*, std::allocator<std::shared_ptr<spdlog::sinks::sink> > >(std::shared_ptr<spdlog::sinks::sink>*, std::shared_ptr<spdlog::sinks::sink>*, std::shared_ptr<spdlog::sinks::sink>*, std::allocator<std::shared_ptr<spdlog::sinks::sink> >&)
FUNC 23896 f 0 std::__new_allocator<std::_Sp_counted_ptr_inplace<spdlog::sinks::daily_file_sink<std::mutex, spdlog::sinks::daily_filename_calculator>, std::allocator<void>, (__gnu_cxx::_Lock_policy)2> >::~__new_allocator()
FUNC 238a6 3a 0 std::__allocated_ptr<std::allocator<std::_Sp_counted_ptr_inplace<spdlog::sinks::daily_file_sink<std::mutex, spdlog::sinks::daily_filename_calculator>, std::allocator<void>, (__gnu_cxx::_Lock_policy)2> > >::__allocated_ptr(std::allocator<std::_Sp_counted_ptr_inplace<spdlog::sinks::daily_file_sink<std::mutex, spdlog::sinks::daily_filename_calculator>, std::allocator<void>, (__gnu_cxx::_Lock_policy)2> >&, std::_Sp_counted_ptr_inplace<spdlog::sinks::daily_file_sink<std::mutex, spdlog::sinks::daily_filename_calculator>, std::allocator<void>, (__gnu_cxx::_Lock_policy)2>*)
FUNC 238e0 12 0 std::_Sp_counted_ptr_inplace<spdlog::sinks::daily_file_sink<std::mutex, spdlog::sinks::daily_filename_calculator>, std::allocator<void>, (__gnu_cxx::_Lock_policy)2>* std::__to_address<std::_Sp_counted_ptr_inplace<spdlog::sinks::daily_file_sink<std::mutex, spdlog::sinks::daily_filename_calculator>, std::allocator<void>, (__gnu_cxx::_Lock_policy)2> >(std::_Sp_counted_ptr_inplace<spdlog::sinks::daily_file_sink<std::mutex, spdlog::sinks::daily_filename_calculator>, std::allocator<void>, (__gnu_cxx::_Lock_policy)2>*)
FUNC 238f2 26 0 std::_Sp_counted_ptr_inplace<spdlog::sinks::daily_file_sink<std::mutex, spdlog::sinks::daily_filename_calculator>, std::allocator<void>, (__gnu_cxx::_Lock_policy)2>::_Impl::_Impl(std::allocator<void>)
FUNC 23918 1e 0 __gnu_cxx::__aligned_buffer<spdlog::sinks::daily_file_sink<std::mutex, spdlog::sinks::daily_filename_calculator> >::_M_ptr()
FUNC 23936 f 0 std::__new_allocator<std::_Sp_counted_ptr_inplace<spdlog::sinks::rotating_file_sink<std::mutex>, std::allocator<void>, (__gnu_cxx::_Lock_policy)2> >::~__new_allocator()
FUNC 23946 3a 0 std::__allocated_ptr<std::allocator<std::_Sp_counted_ptr_inplace<spdlog::sinks::rotating_file_sink<std::mutex>, std::allocator<void>, (__gnu_cxx::_Lock_policy)2> > >::__allocated_ptr(std::allocator<std::_Sp_counted_ptr_inplace<spdlog::sinks::rotating_file_sink<std::mutex>, std::allocator<void>, (__gnu_cxx::_Lock_policy)2> >&, std::_Sp_counted_ptr_inplace<spdlog::sinks::rotating_file_sink<std::mutex>, std::allocator<void>, (__gnu_cxx::_Lock_policy)2>*)
FUNC 23980 12 0 std::_Sp_counted_ptr_inplace<spdlog::sinks::rotating_file_sink<std::mutex>, std::allocator<void>, (__gnu_cxx::_Lock_policy)2>* std::__to_address<std::_Sp_counted_ptr_inplace<spdlog::sinks::rotating_file_sink<std::mutex>, std::allocator<void>, (__gnu_cxx::_Lock_policy)2> >(std::_Sp_counted_ptr_inplace<spdlog::sinks::rotating_file_sink<std::mutex>, std::allocator<void>, (__gnu_cxx::_Lock_policy)2>*)
FUNC 23992 26 0 std::_Sp_counted_ptr_inplace<spdlog::sinks::rotating_file_sink<std::mutex>, std::allocator<void>, (__gnu_cxx::_Lock_policy)2>::_Impl::_Impl(std::allocator<void>)
FUNC 239b8 1e 0 __gnu_cxx::__aligned_buffer<spdlog::sinks::rotating_file_sink<std::mutex> >::_M_ptr()
FUNC 239d6 f 0 std::__new_allocator<std::_Sp_counted_ptr_inplace<spdlog::async_logger, std::allocator<void>, (__gnu_cxx::_Lock_policy)2> >::~__new_allocator()
FUNC 239e6 3a 0 std::__allocated_ptr<std::allocator<std::_Sp_counted_ptr_inplace<spdlog::async_logger, std::allocator<void>, (__gnu_cxx::_Lock_policy)2> > >::__allocated_ptr(std::allocator<std::_Sp_counted_ptr_inplace<spdlog::async_logger, std::allocator<void>, (__gnu_cxx::_Lock_policy)2> >&, std::_Sp_counted_ptr_inplace<spdlog::async_logger, std::allocator<void>, (__gnu_cxx::_Lock_policy)2>*)
FUNC 23a20 12 0 std::_Sp_counted_ptr_inplace<spdlog::async_logger, std::allocator<void>, (__gnu_cxx::_Lock_policy)2>* std::__to_address<std::_Sp_counted_ptr_inplace<spdlog::async_logger, std::allocator<void>, (__gnu_cxx::_Lock_policy)2> >(std::_Sp_counted_ptr_inplace<spdlog::async_logger, std::allocator<void>, (__gnu_cxx::_Lock_policy)2>*)
FUNC 23a32 26 0 std::_Sp_counted_ptr_inplace<spdlog::async_logger, std::allocator<void>, (__gnu_cxx::_Lock_policy)2>::_Impl::_Impl(std::allocator<void>)
FUNC 23a58 1e 0 __gnu_cxx::__aligned_buffer<spdlog::async_logger>::_M_ptr()
FUNC 23a76 53 0 std::__weak_ptr<spdlog::async_logger, (__gnu_cxx::_Lock_policy)2>::_M_assign(spdlog::async_logger*, std::__shared_count<(__gnu_cxx::_Lock_policy)2> const&)
FUNC 23aca f 0 std::__new_allocator<std::_Sp_counted_ptr_inplace<spdlog::logger, std::allocator<void>, (__gnu_cxx::_Lock_policy)2> >::~__new_allocator()
FUNC 23ada 3a 0 std::__allocated_ptr<std::allocator<std::_Sp_counted_ptr_inplace<spdlog::logger, std::allocator<void>, (__gnu_cxx::_Lock_policy)2> > >::__allocated_ptr(std::allocator<std::_Sp_counted_ptr_inplace<spdlog::logger, std::allocator<void>, (__gnu_cxx::_Lock_policy)2> >&, std::_Sp_counted_ptr_inplace<spdlog::logger, std::allocator<void>, (__gnu_cxx::_Lock_policy)2>*)
FUNC 23b14 12 0 std::_Sp_counted_ptr_inplace<spdlog::logger, std::allocator<void>, (__gnu_cxx::_Lock_policy)2>* std::__to_address<std::_Sp_counted_ptr_inplace<spdlog::logger, std::allocator<void>, (__gnu_cxx::_Lock_policy)2> >(std::_Sp_counted_ptr_inplace<spdlog::logger, std::allocator<void>, (__gnu_cxx::_Lock_policy)2>*)
FUNC 23b26 26 0 std::_Sp_counted_ptr_inplace<spdlog::logger, std::allocator<void>, (__gnu_cxx::_Lock_policy)2>::_Impl::_Impl(std::allocator<void>)
FUNC 23b4c 1e 0 __gnu_cxx::__aligned_buffer<spdlog::logger>::_M_ptr()
FUNC 23b6a 13 0 std::_Sp_ebo_helper<0, std::allocator<void>, true>::_Sp_ebo_helper(std::allocator<void> const&)
FUNC 23b7e 75 0 std::__new_allocator<std::_Sp_counted_ptr_inplace<spdlog::details::thread_pool, std::allocator<void>, (__gnu_cxx::_Lock_policy)2> >::allocate(unsigned long, void const*)
FUNC 23bf3 12 0 std::allocator<std::_Sp_counted_ptr_inplace<spdlog::details::thread_pool, std::allocator<void>, (__gnu_cxx::_Lock_policy)2> >* std::__addressof<std::allocator<std::_Sp_counted_ptr_inplace<spdlog::details::thread_pool, std::allocator<void>, (__gnu_cxx::_Lock_policy)2> > >(std::allocator<std::_Sp_counted_ptr_inplace<spdlog::details::thread_pool, std::allocator<void>, (__gnu_cxx::_Lock_policy)2> >&)
FUNC 23c06 3e 0 std::__new_allocator<std::_Sp_counted_ptr_inplace<spdlog::details::thread_pool, std::allocator<void>, (__gnu_cxx::_Lock_policy)2> >::deallocate(std::_Sp_counted_ptr_inplace<spdlog::details::thread_pool, std::allocator<void>, (__gnu_cxx::_Lock_policy)2>*, unsigned long)
FUNC 23c44 174 0 void std::_Construct<spdlog::details::thread_pool, unsigned long&, unsigned long&, std::function<void ()>&, std::function<void ()>&>(spdlog::details::thread_pool*, unsigned long&, unsigned long&, std::function<void ()>&, std::function<void ()>&)
FUNC 23db8 12 0 __gnu_cxx::__aligned_buffer<spdlog::details::thread_pool>::_M_addr()
FUNC 23dca 6e 0 std::__new_allocator<std::_Sp_counted_ptr_inplace<spdlog::sinks::ansicolor_stdout_sink<spdlog::details::console_mutex>, std::allocator<void>, (__gnu_cxx::_Lock_policy)2> >::allocate(unsigned long, void const*)
FUNC 23e38 12 0 std::allocator<std::_Sp_counted_ptr_inplace<spdlog::sinks::ansicolor_stdout_sink<spdlog::details::console_mutex>, std::allocator<void>, (__gnu_cxx::_Lock_policy)2> >* std::__addressof<std::allocator<std::_Sp_counted_ptr_inplace<spdlog::sinks::ansicolor_stdout_sink<spdlog::details::console_mutex>, std::allocator<void>, (__gnu_cxx::_Lock_policy)2> > >(std::allocator<std::_Sp_counted_ptr_inplace<spdlog::sinks::ansicolor_stdout_sink<spdlog::details::console_mutex>, std::allocator<void>, (__gnu_cxx::_Lock_policy)2> >&)
FUNC 23e4a 34 0 std::__new_allocator<std::_Sp_counted_ptr_inplace<spdlog::sinks::ansicolor_stdout_sink<spdlog::details::console_mutex>, std::allocator<void>, (__gnu_cxx::_Lock_policy)2> >::deallocate(std::_Sp_counted_ptr_inplace<spdlog::sinks::ansicolor_stdout_sink<spdlog::details::console_mutex>, std::allocator<void>, (__gnu_cxx::_Lock_policy)2>*, unsigned long)
FUNC 23e7e 6f 0 void std::_Construct<spdlog::sinks::ansicolor_stdout_sink<spdlog::details::console_mutex>>(spdlog::sinks::ansicolor_stdout_sink<spdlog::details::console_mutex>*)
FUNC 23eee 12 0 __gnu_cxx::__aligned_buffer<spdlog::sinks::ansicolor_stdout_sink<spdlog::details::console_mutex> >::_M_addr()
FUNC 23f00 c3 0 void std::__relocate_object_a<std::shared_ptr<spdlog::sinks::sink>, std::shared_ptr<spdlog::sinks::sink>, std::allocator<std::shared_ptr<spdlog::sinks::sink> > >(std::shared_ptr<spdlog::sinks::sink>*, std::shared_ptr<spdlog::sinks::sink>*, std::allocator<std::shared_ptr<spdlog::sinks::sink> >&)
FUNC 23fc4 6e 0 std::__new_allocator<std::_Sp_counted_ptr_inplace<spdlog::sinks::daily_file_sink<std::mutex, spdlog::sinks::daily_filename_calculator>, std::allocator<void>, (__gnu_cxx::_Lock_policy)2> >::allocate(unsigned long, void const*)
FUNC 24032 12 0 std::allocator<std::_Sp_counted_ptr_inplace<spdlog::sinks::daily_file_sink<std::mutex, spdlog::sinks::daily_filename_calculator>, std::allocator<void>, (__gnu_cxx::_Lock_policy)2> >* std::__addressof<std::allocator<std::_Sp_counted_ptr_inplace<spdlog::sinks::daily_file_sink<std::mutex, spdlog::sinks::daily_filename_calculator>, std::allocator<void>, (__gnu_cxx::_Lock_policy)2> > >(std::allocator<std::_Sp_counted_ptr_inplace<spdlog::sinks::daily_file_sink<std::mutex, spdlog::sinks::daily_filename_calculator>, std::allocator<void>, (__gnu_cxx::_Lock_policy)2> >&)
FUNC 24044 34 0 std::__new_allocator<std::_Sp_counted_ptr_inplace<spdlog::sinks::daily_file_sink<std::mutex, spdlog::sinks::daily_filename_calculator>, std::allocator<void>, (__gnu_cxx::_Lock_policy)2> >::deallocate(std::_Sp_counted_ptr_inplace<spdlog::sinks::daily_file_sink<std::mutex, spdlog::sinks::daily_filename_calculator>, std::allocator<void>, (__gnu_cxx::_Lock_policy)2>*, unsigned long)
FUNC 24078 4f 0 spdlog::file_event_handlers::~file_event_handlers()
FUNC 240c7 183 0 void std::_Construct<spdlog::sinks::daily_file_sink<std::mutex, spdlog::sinks::daily_filename_calculator>, std::__cxx11::basic_string<char, std::char_traits<char>, std::allocator<char> >, int const&, int const&>(spdlog::sinks::daily_file_sink<std::mutex, spdlog::sinks::daily_filename_calculator>*, std::__cxx11::basic_string<char, std::char_traits<char>, std::allocator<char> >&&, int const&, int const&)
FUNC 2424a 12 0 __gnu_cxx::__aligned_buffer<spdlog::sinks::daily_file_sink<std::mutex, spdlog::sinks::daily_filename_calculator> >::_M_addr()
FUNC 2425c 6e 0 std::__new_allocator<std::_Sp_counted_ptr_inplace<spdlog::sinks::rotating_file_sink<std::mutex>, std::allocator<void>, (__gnu_cxx::_Lock_policy)2> >::allocate(unsigned long, void const*)
FUNC 242ca 12 0 std::allocator<std::_Sp_counted_ptr_inplace<spdlog::sinks::rotating_file_sink<std::mutex>, std::allocator<void>, (__gnu_cxx::_Lock_policy)2> >* std::__addressof<std::allocator<std::_Sp_counted_ptr_inplace<spdlog::sinks::rotating_file_sink<std::mutex>, std::allocator<void>, (__gnu_cxx::_Lock_policy)2> > >(std::allocator<std::_Sp_counted_ptr_inplace<spdlog::sinks::rotating_file_sink<std::mutex>, std::allocator<void>, (__gnu_cxx::_Lock_policy)2> >&)
FUNC 242dc 34 0 std::__new_allocator<std::_Sp_counted_ptr_inplace<spdlog::sinks::rotating_file_sink<std::mutex>, std::allocator<void>, (__gnu_cxx::_Lock_policy)2> >::deallocate(std::_Sp_counted_ptr_inplace<spdlog::sinks::rotating_file_sink<std::mutex>, std::allocator<void>, (__gnu_cxx::_Lock_policy)2>*, unsigned long)
FUNC 24310 17a 0 void std::_Construct<spdlog::sinks::rotating_file_sink<std::mutex>, std::__cxx11::basic_string<char, std::char_traits<char>, std::allocator<char> >, unsigned long const&, unsigned long const&>(spdlog::sinks::rotating_file_sink<std::mutex>*, std::__cxx11::basic_string<char, std::char_traits<char>, std::allocator<char> >&&, unsigned long const&, unsigned long const&)
FUNC 2448a 12 0 __gnu_cxx::__aligned_buffer<spdlog::sinks::rotating_file_sink<std::mutex> >::_M_addr()
FUNC 2449c 75 0 std::__new_allocator<std::_Sp_counted_ptr_inplace<spdlog::async_logger, std::allocator<void>, (__gnu_cxx::_Lock_policy)2> >::allocate(unsigned long, void const*)
FUNC 24511 12 0 std::allocator<std::_Sp_counted_ptr_inplace<spdlog::async_logger, std::allocator<void>, (__gnu_cxx::_Lock_policy)2> >* std::__addressof<std::allocator<std::_Sp_counted_ptr_inplace<spdlog::async_logger, std::allocator<void>, (__gnu_cxx::_Lock_policy)2> > >(std::allocator<std::_Sp_counted_ptr_inplace<spdlog::async_logger, std::allocator<void>, (__gnu_cxx::_Lock_policy)2> >&)
FUNC 24524 3e 0 std::__new_allocator<std::_Sp_counted_ptr_inplace<spdlog::async_logger, std::allocator<void>, (__gnu_cxx::_Lock_policy)2> >::deallocate(std::_Sp_counted_ptr_inplace<spdlog::async_logger, std::allocator<void>, (__gnu_cxx::_Lock_policy)2>*, unsigned long)
FUNC 24562 23 0 std::__weak_ptr<spdlog::details::thread_pool, (__gnu_cxx::_Lock_policy)2>::~__weak_ptr()
FUNC 24586 1f 0 std::weak_ptr<spdlog::details::thread_pool>::~weak_ptr()
FUNC 245a5 197 0 void std::_Construct<spdlog::async_logger, std::__cxx11::basic_string<char, std::char_traits<char>, std::allocator<char> > const&, __gnu_cxx::__normal_iterator<std::shared_ptr<spdlog::sinks::sink>*, std::vector<std::shared_ptr<spdlog::sinks::sink>, std::allocator<std::shared_ptr<spdlog::sinks::sink> > > >, __gnu_cxx::__normal_iterator<std::shared_ptr<spdlog::sinks::sink>*, std::vector<std::shared_ptr<spdlog::sinks::sink>, std::allocator<std::shared_ptr<spdlog::sinks::sink> > > >, std::shared_ptr<spdlog::details::thread_pool>, spdlog::async_overflow_policy>(spdlog::async_logger*, std::__cxx11::basic_string<char, std::char_traits<char>, std::allocator<char> > const&, __gnu_cxx::__normal_iterator<std::shared_ptr<spdlog::sinks::sink>*, std::vector<std::shared_ptr<spdlog::sinks::sink>, std::allocator<std::shared_ptr<spdlog::sinks::sink> > > >&&, __gnu_cxx::__normal_iterator<std::shared_ptr<spdlog::sinks::sink>*, std::vector<std::shared_ptr<spdlog::sinks::sink>, std::allocator<std::shared_ptr<spdlog::sinks::sink> > > >&&, std::shared_ptr<spdlog::details::thread_pool>&&, spdlog::async_overflow_policy&&)
FUNC 2473c 12 0 __gnu_cxx::__aligned_buffer<spdlog::async_logger>::_M_addr()
FUNC 2474e 22 0 std::__weak_ptr<spdlog::async_logger, (__gnu_cxx::_Lock_policy)2>::use_count() const
FUNC 24770 5e 0 std::__weak_count<(__gnu_cxx::_Lock_policy)2>::operator=(std::__shared_count<(__gnu_cxx::_Lock_policy)2> const&)
FUNC 247ce 75 0 std::__new_allocator<std::_Sp_counted_ptr_inplace<spdlog::logger, std::allocator<void>, (__gnu_cxx::_Lock_policy)2> >::allocate(unsigned long, void const*)
FUNC 24843 12 0 std::allocator<std::_Sp_counted_ptr_inplace<spdlog::logger, std::allocator<void>, (__gnu_cxx::_Lock_policy)2> >* std::__addressof<std::allocator<std::_Sp_counted_ptr_inplace<spdlog::logger, std::allocator<void>, (__gnu_cxx::_Lock_policy)2> > >(std::allocator<std::_Sp_counted_ptr_inplace<spdlog::logger, std::allocator<void>, (__gnu_cxx::_Lock_policy)2> >&)
FUNC 24856 3e 0 std::__new_allocator<std::_Sp_counted_ptr_inplace<spdlog::logger, std::allocator<void>, (__gnu_cxx::_Lock_policy)2> >::deallocate(std::_Sp_counted_ptr_inplace<spdlog::logger, std::allocator<void>, (__gnu_cxx::_Lock_policy)2>*, unsigned long)
FUNC 24894 11d 0 void std::_Construct<spdlog::logger, std::__cxx11::basic_string<char, std::char_traits<char>, std::allocator<char> > const&, __gnu_cxx::__normal_iterator<std::shared_ptr<spdlog::sinks::sink>*, std::vector<std::shared_ptr<spdlog::sinks::sink>, std::allocator<std::shared_ptr<spdlog::sinks::sink> > > >, __gnu_cxx::__normal_iterator<std::shared_ptr<spdlog::sinks::sink>*, std::vector<std::shared_ptr<spdlog::sinks::sink>, std::allocator<std::shared_ptr<spdlog::sinks::sink> > > > >(spdlog::logger*, std::__cxx11::basic_string<char, std::char_traits<char>, std::allocator<char> > const&, __gnu_cxx::__normal_iterator<std::shared_ptr<spdlog::sinks::sink>*, std::vector<std::shared_ptr<spdlog::sinks::sink>, std::allocator<std::shared_ptr<spdlog::sinks::sink> > > >&&, __gnu_cxx::__normal_iterator<std::shared_ptr<spdlog::sinks::sink>*, std::vector<std::shared_ptr<spdlog::sinks::sink>, std::allocator<std::shared_ptr<spdlog::sinks::sink> > > >&&)
FUNC 249b2 12 0 __gnu_cxx::__aligned_buffer<spdlog::logger>::_M_addr()
FUNC 249c4 40 0 std::__shared_ptr<spdlog::sinks::sink, (__gnu_cxx::_Lock_policy)2>::__shared_ptr(std::__shared_ptr<spdlog::sinks::sink, (__gnu_cxx::_Lock_policy)2> const&)
FUNC 24a04 2a 0 std::shared_ptr<spdlog::sinks::sink>::shared_ptr(std::shared_ptr<spdlog::sinks::sink> const&)
FUNC 24a2e 21 0 spdlog::sinks::sink::~sink()
FUNC 24a50 2f 0 spdlog::sinks::sink::~sink()
FUNC 24a80 41 0 spdlog::sinks::base_sink<std::mutex>::~base_sink()
FUNC 24ac2 2f 0 spdlog::sinks::base_sink<std::mutex>::~base_sink()
FUNC 24af2 1f 0 std::_Vector_base<std::__cxx11::basic_string<char, std::char_traits<char>, std::allocator<char> >, std::allocator<std::__cxx11::basic_string<char, std::char_traits<char>, std::allocator<char> > > >::_Vector_base()
FUNC 24b12 1f 0 std::vector<std::__cxx11::basic_string<char, std::char_traits<char>, std::allocator<char> >, std::allocator<std::__cxx11::basic_string<char, std::char_traits<char>, std::allocator<char> > > >::vector()
FUNC 24b32 52 0 spdlog::details::circular_q<std::__cxx11::basic_string<char, std::char_traits<char>, std::allocator<char> > >::circular_q()
FUNC 24b84 23 0 spdlog::details::circular_q<std::__cxx11::basic_string<char, std::char_traits<char>, std::allocator<char> > >::~circular_q()
FUNC 24ba8 35a 0 spdlog::sinks::daily_file_sink<std::mutex, spdlog::sinks::daily_filename_calculator>::daily_file_sink(std::__cxx11::basic_string<char, std::char_traits<char>, std::allocator<char> >, int, int, bool, unsigned short, spdlog::file_event_handlers const&)
FUNC 24f02 2a 0 std::weak_ptr<spdlog::details::thread_pool>::weak_ptr<spdlog::details::thread_pool, void>(std::shared_ptr<spdlog::details::thread_pool> const&)
FUNC 24f2c 2e 0 std::__weak_count<(__gnu_cxx::_Lock_policy)2>::~__weak_count()
FUNC 24f5a 2a 0 std::weak_ptr<spdlog::details::thread_pool>::weak_ptr(std::weak_ptr<spdlog::details::thread_pool>&&)
FUNC 24f84 12d 0 spdlog::async_logger::async_logger<__gnu_cxx::__normal_iterator<std::shared_ptr<spdlog::sinks::sink>*, std::vector<std::shared_ptr<spdlog::sinks::sink>, std::allocator<std::shared_ptr<spdlog::sinks::sink> > > > >(std::__cxx11::basic_string<char, std::char_traits<char>, std::allocator<char> >, __gnu_cxx::__normal_iterator<std::shared_ptr<spdlog::sinks::sink>*, std::vector<std::shared_ptr<spdlog::sinks::sink>, std::allocator<std::shared_ptr<spdlog::sinks::sink> > > >, __gnu_cxx::__normal_iterator<std::shared_ptr<spdlog::sinks::sink>*, std::vector<std::shared_ptr<spdlog::sinks::sink>, std::allocator<std::shared_ptr<spdlog::sinks::sink> > > >, std::weak_ptr<spdlog::details::thread_pool>, spdlog::async_overflow_policy)
FUNC 250b2 34 0 std::__weak_count<(__gnu_cxx::_Lock_policy)2>::_M_get_use_count() const
FUNC 250e6 70 0 std::_Sp_counted_base<(__gnu_cxx::_Lock_policy)2>::_M_weak_add_ref()
FUNC 25156 a3 0 std::_Sp_counted_base<(__gnu_cxx::_Lock_policy)2>::_M_weak_release()
FUNC 251fa 13f 0 spdlog::logger::logger<__gnu_cxx::__normal_iterator<std::shared_ptr<spdlog::sinks::sink>*, std::vector<std::shared_ptr<spdlog::sinks::sink>, std::allocator<std::shared_ptr<spdlog::sinks::sink> > > > >(std::__cxx11::basic_string<char, std::char_traits<char>, std::allocator<char> >, __gnu_cxx::__normal_iterator<std::shared_ptr<spdlog::sinks::sink>*, std::vector<std::shared_ptr<spdlog::sinks::sink>, std::allocator<std::shared_ptr<spdlog::sinks::sink> > > >, __gnu_cxx::__normal_iterator<std::shared_ptr<spdlog::sinks::sink>*, std::vector<std::shared_ptr<spdlog::sinks::sink>, std::allocator<std::shared_ptr<spdlog::sinks::sink> > > >)
FUNC 2533a 68 0 std::unique_ptr<spdlog::formatter, std::default_delete<spdlog::formatter> >::~unique_ptr()
FUNC 253a2 31 0 std::_Vector_base<std::__cxx11::basic_string<char, std::char_traits<char>, std::allocator<char> >, std::allocator<std::__cxx11::basic_string<char, std::char_traits<char>, std::allocator<char> > > >::_Vector_impl::_Vector_impl()
FUNC 253d4 65 0 spdlog::sinks::daily_file_sink<std::mutex, spdlog::sinks::daily_filename_calculator>::now_tm(std::chrono::time_point<std::chrono::_V2::system_clock, std::chrono::duration<long, std::ratio<1l, 1000000000l> > >)
FUNC 25439 29 0 bool std::chrono::operator><std::chrono::_V2::system_clock, std::chrono::duration<long, std::ratio<1l, 1000000000l> >, std::chrono::duration<long, std::ratio<1l, 1000000000l> > >(std::chrono::time_point<std::chrono::_V2::system_clock, std::chrono::duration<long, std::ratio<1l, 1000000000l> > > const&, std::chrono::time_point<std::chrono::_V2::system_clock, std::chrono::duration<long, std::ratio<1l, 1000000000l> > > const&)
FUNC 25462 6c 0 bool std::chrono::operator< <std::chrono::_V2::system_clock, std::chrono::duration<long, std::ratio<1l, 1000000000l> >, std::chrono::duration<long, std::ratio<1l, 1000000000l> > >(std::chrono::time_point<std::chrono::_V2::system_clock, std::chrono::duration<long, std::ratio<1l, 1000000000l> > > const&, std::chrono::time_point<std::chrono::_V2::system_clock, std::chrono::duration<long, std::ratio<1l, 1000000000l> > > const&)
FUNC 254ce d3 0 spdlog::sinks::daily_file_sink<std::mutex, spdlog::sinks::daily_filename_calculator>::next_rotation_tp_()
FUNC 255a2 28f 0 spdlog::sinks::daily_file_sink<std::mutex, spdlog::sinks::daily_filename_calculator>::init_filenames_q_()
FUNC 25832 40 0 std::__weak_ptr<spdlog::details::thread_pool, (__gnu_cxx::_Lock_policy)2>::__weak_ptr<spdlog::details::thread_pool, void>(std::__shared_ptr<spdlog::details::thread_pool, (__gnu_cxx::_Lock_policy)2> const&)
FUNC 25872 12 0 std::remove_reference<std::weak_ptr<spdlog::details::thread_pool>&>::type&& std::move<std::weak_ptr<spdlog::details::thread_pool>&>(std::weak_ptr<spdlog::details::thread_pool>&)
FUNC 25884 23 0 std::__weak_ptr<spdlog::async_logger, (__gnu_cxx::_Lock_policy)2>::~__weak_ptr()
FUNC 258a8 1f 0 std::weak_ptr<spdlog::async_logger>::weak_ptr()
FUNC 258c8 1f 0 std::weak_ptr<spdlog::async_logger>::~weak_ptr()
FUNC 258e8 1f 0 std::enable_shared_from_this<spdlog::async_logger>::enable_shared_from_this()
FUNC 25908 1f 0 std::enable_shared_from_this<spdlog::async_logger>::~enable_shared_from_this()
FUNC 25928 58 0 std::__weak_ptr<spdlog::details::thread_pool, (__gnu_cxx::_Lock_policy)2>::__weak_ptr(std::__weak_ptr<spdlog::details::thread_pool, (__gnu_cxx::_Lock_policy)2>&&)
FUNC 25980 a5 0 std::vector<std::shared_ptr<spdlog::sinks::sink>, std::allocator<std::shared_ptr<spdlog::sinks::sink> > >::vector<__gnu_cxx::__normal_iterator<std::shared_ptr<spdlog::sinks::sink>*, std::vector<std::shared_ptr<spdlog::sinks::sink>, std::allocator<std::shared_ptr<spdlog::sinks::sink> > > >, void>(__gnu_cxx::__normal_iterator<std::shared_ptr<spdlog::sinks::sink>*, std::vector<std::shared_ptr<spdlog::sinks::sink>, std::allocator<std::shared_ptr<spdlog::sinks::sink> > > >, __gnu_cxx::__normal_iterator<std::shared_ptr<spdlog::sinks::sink>*, std::vector<std::shared_ptr<spdlog::sinks::sink>, std::allocator<std::shared_ptr<spdlog::sinks::sink> > > >, std::allocator<std::shared_ptr<spdlog::sinks::sink> > const&)
FUNC 25a26 1e 0 std::__uniq_ptr_impl<spdlog::formatter, std::default_delete<spdlog::formatter> >::_M_ptr()
FUNC 25a44 1e 0 std::unique_ptr<spdlog::formatter, std::default_delete<spdlog::formatter> >::get_deleter()
FUNC 25a62 12 0 std::remove_reference<spdlog::formatter*&>::type&& std::move<spdlog::formatter*&>(spdlog::formatter*&)
FUNC 25a74 2f 0 std::default_delete<spdlog::formatter>::operator()(spdlog::formatter*) const
FUNC 25aa3 77 0 std::chrono::time_point<std::chrono::_V2::system_clock, std::common_type<std::chrono::duration<long, std::ratio<1l, 1000000000l> >, std::chrono::duration<long, std::ratio<3600l, 1l> > >::type> std::chrono::operator+<std::chrono::_V2::system_clock, std::chrono::duration<long, std::ratio<1l, 1000000000l> >, long, std::ratio<3600l, 1l> >(std::chrono::time_point<std::chrono::_V2::system_clock, std::chrono::duration<long, std::ratio<1l, 1000000000l> > > const&, std::chrono::duration<long, std::ratio<3600l, 1l> > const&)
FUNC 25b1a 23 0 std::chrono::duration<long, std::ratio<3600l, 1l> >::duration<int, void>(int const&)
FUNC 25b3e dc 0 spdlog::details::circular_q<std::__cxx11::basic_string<char, std::char_traits<char>, std::allocator<char> > >::circular_q(unsigned long)
FUNC 25c1a 38 0 spdlog::details::circular_q<std::__cxx11::basic_string<char, std::char_traits<char>, std::allocator<char> > >::operator=(spdlog::details::circular_q<std::__cxx11::basic_string<char, std::char_traits<char>, std::allocator<char> > >&&)
FUNC 25c52 27 0 std::vector<std::__cxx11::basic_string<char, std::char_traits<char>, std::allocator<char> >, std::allocator<std::__cxx11::basic_string<char, std::char_traits<char>, std::allocator<char> > > >::size() const
FUNC 25c7a 12c 0 std::__cxx11::basic_string<char, std::char_traits<char>, std::allocator<char> >& std::vector<std::__cxx11::basic_string<char, std::char_traits<char>, std::allocator<char> >, std::allocator<std::__cxx11::basic_string<char, std::char_traits<char>, std::allocator<char> > > >::emplace_back<std::__cxx11::basic_string<char, std::char_traits<char>, std::allocator<char> >&>(std::__cxx11::basic_string<char, std::char_traits<char>, std::allocator<char> >&)
FUNC 25da6 2d 0 std::chrono::time_point<std::chrono::_V2::system_clock, std::chrono::duration<long, std::ratio<1l, 1000000000l> > >::operator-=(std::chrono::duration<long, std::ratio<1l, 1000000000l> > const&)
FUNC 25dd4 5d 0 std::chrono::duration<long, std::ratio<1l, 1000000000l> >::duration<long, std::ratio<3600l, 1l>, void>(std::chrono::duration<long, std::ratio<3600l, 1l> > const&)
FUNC 25e32 38 0 std::vector<std::__cxx11::basic_string<char, std::char_traits<char>, std::allocator<char> >, std::allocator<std::__cxx11::basic_string<char, std::char_traits<char>, std::allocator<char> > > >::rbegin()
FUNC 25e6a 2c 0 bool std::operator!=<__gnu_cxx::__normal_iterator<std::__cxx11::basic_string<char, std::char_traits<char>, std::allocator<char> >*, std::vector<std::__cxx11::basic_string<char, std::char_traits<char>, std::allocator<char> >, std::allocator<std::__cxx11::basic_string<char, std::char_traits<char>, std::allocator<char> > > > > >(std::reverse_iterator<__gnu_cxx::__normal_iterator<std::__cxx11::basic_string<char, std::char_traits<char>, std::allocator<char> >*, std::vector<std::__cxx11::basic_string<char, std::char_traits<char>, std::allocator<char> >, std::allocator<std::__cxx11::basic_string<char, std::char_traits<char>, std::allocator<char> > > > > > const&, std::reverse_iterator<__gnu_cxx::__normal_iterator<std::__cxx11::basic_string<char, std::char_traits<char>, std::allocator<char> >*, std::vector<std::__cxx11::basic_string<char, std::char_traits<char>, std::allocator<char> >, std::allocator<std::__cxx11::basic_string<char, std::char_traits<char>, std::allocator<char> > > > > > const&)
FUNC 25e96 38 0 std::vector<std::__cxx11::basic_string<char, std::char_traits<char>, std::allocator<char> >, std::allocator<std::__cxx11::basic_string<char, std::char_traits<char>, std::allocator<char> > > >::rend()
FUNC 25ece 22 0 std::reverse_iterator<__gnu_cxx::__normal_iterator<std::__cxx11::basic_string<char, std::char_traits<char>, std::allocator<char> >*, std::vector<std::__cxx11::basic_string<char, std::char_traits<char>, std::allocator<char> >, std::allocator<std::__cxx11::basic_string<char, std::char_traits<char>, std::allocator<char> > > > > >::operator++()
FUNC 25ef0 e2 0 spdlog::details::circular_q<std::__cxx11::basic_string<char, std::char_traits<char>, std::allocator<char> > >::push_back(std::__cxx11::basic_string<char, std::char_traits<char>, std::allocator<char> >&&)
FUNC 25fd2 54 0 std::reverse_iterator<__gnu_cxx::__normal_iterator<std::__cxx11::basic_string<char, std::char_traits<char>, std::allocator<char> >*, std::vector<std::__cxx11::basic_string<char, std::char_traits<char>, std::allocator<char> >, std::allocator<std::__cxx11::basic_string<char, std::char_traits<char>, std::allocator<char> > > > > >::operator*() const
FUNC 26026 40 0 std::__weak_count<(__gnu_cxx::_Lock_policy)2>::__weak_count(std::__shared_count<(__gnu_cxx::_Lock_policy)2> const&)
FUNC 26066 2e 0 std::__weak_ptr<spdlog::async_logger, (__gnu_cxx::_Lock_policy)2>::__weak_ptr()
FUNC 26094 12 0 std::remove_reference<std::__weak_count<(__gnu_cxx::_Lock_policy)2>&>::type&& std::move<std::__weak_count<(__gnu_cxx::_Lock_policy)2>&>(std::__weak_count<(__gnu_cxx::_Lock_policy)2>&)
FUNC 260a6 2c 0 std::__weak_count<(__gnu_cxx::_Lock_policy)2>::__weak_count(std::__weak_count<(__gnu_cxx::_Lock_policy)2>&&)
FUNC 260d2 f9 0 void std::vector<std::shared_ptr<spdlog::sinks::sink>, std::allocator<std::shared_ptr<spdlog::sinks::sink> > >::_M_range_initialize<__gnu_cxx::__normal_iterator<std::shared_ptr<spdlog::sinks::sink>*, std::vector<std::shared_ptr<spdlog::sinks::sink>, std::allocator<std::shared_ptr<spdlog::sinks::sink> > > > >(__gnu_cxx::__normal_iterator<std::shared_ptr<spdlog::sinks::sink>*, std::vector<std::shared_ptr<spdlog::sinks::sink>, std::allocator<std::shared_ptr<spdlog::sinks::sink> > > >, __gnu_cxx::__normal_iterator<std::shared_ptr<spdlog::sinks::sink>*, std::vector<std::shared_ptr<spdlog::sinks::sink>, std::allocator<std::shared_ptr<spdlog::sinks::sink> > > >, std::forward_iterator_tag)
FUNC 261cb 1e 0 std::tuple_element<0ul, std::tuple<spdlog::formatter*, std::default_delete<spdlog::formatter> > >::type& std::get<0ul, spdlog::formatter*, std::default_delete<spdlog::formatter> >(std::tuple<spdlog::formatter*, std::default_delete<spdlog::formatter> >&)
FUNC 261ea 1e 0 std::__uniq_ptr_impl<spdlog::formatter, std::default_delete<spdlog::formatter> >::_M_deleter()
FUNC 26208 95 0 std::common_type<std::chrono::duration<long, std::ratio<1l, 1000000000l> >, std::chrono::duration<long, std::ratio<3600l, 1l> > >::type std::chrono::operator+<long, std::ratio<1l, 1000000000l>, long, std::ratio<3600l, 1l> >(std::chrono::duration<long, std::ratio<1l, 1000000000l> > const&, std::chrono::duration<long, std::ratio<3600l, 1l> > const&)
FUNC 2629e 7e 0 std::vector<std::__cxx11::basic_string<char, std::char_traits<char>, std::allocator<char> >, std::allocator<std::__cxx11::basic_string<char, std::char_traits<char>, std::allocator<char> > > >::vector(unsigned long, std::allocator<std::__cxx11::basic_string<char, std::char_traits<char>, std::allocator<char> > > const&)
FUNC 2631c ae 0 spdlog::details::circular_q<std::__cxx11::basic_string<char, std::char_traits<char>, std::allocator<char> > >::copy_moveable(spdlog::details::circular_q<std::__cxx11::basic_string<char, std::char_traits<char>, std::allocator<char> > >&&)
FUNC 263ca 12 0 std::remove_reference<spdlog::details::circular_q<std::__cxx11::basic_string<char, std::char_traits<char>, std::allocator<char> > >&>::type&& std::move<spdlog::details::circular_q<std::__cxx11::basic_string<char, std::char_traits<char>, std::allocator<char> > >&>(spdlog::details::circular_q<std::__cxx11::basic_string<char, std::char_traits<char>, std::allocator<char> > >&)
FUNC 263dc 12 0 std::__cxx11::basic_string<char, std::char_traits<char>, std::allocator<char> >& std::forward<std::__cxx11::basic_string<char, std::char_traits<char>, std::allocator<char> >&>(std::remove_reference<std::__cxx11::basic_string<char, std::char_traits<char>, std::allocator<char> >&>::type&)
FUNC 263ee 50 0 std::vector<std::__cxx11::basic_string<char, std::char_traits<char>, std::allocator<char> >, std::allocator<std::__cxx11::basic_string<char, std::char_traits<char>, std::allocator<char> > > >::end()
FUNC 2643e 3cd 0 void std::vector<std::__cxx11::basic_string<char, std::char_traits<char>, std::allocator<char> >, std::allocator<std::__cxx11::basic_string<char, std::char_traits<char>, std::allocator<char> > > >::_M_realloc_insert<std::__cxx11::basic_string<char, std::char_traits<char>, std::allocator<char> >&>(__gnu_cxx::__normal_iterator<std::__cxx11::basic_string<char, std::char_traits<char>, std::allocator<char> >*, std::vector<std::__cxx11::basic_string<char, std::char_traits<char>, std::allocator<char> >, std::allocator<std::__cxx11::basic_string<char, std::char_traits<char>, std::allocator<char> > > > >, std::__cxx11::basic_string<char, std::char_traits<char>, std::allocator<char> >&)
FUNC 2680c 66 0 std::vector<std::__cxx11::basic_string<char, std::char_traits<char>, std::allocator<char> >, std::allocator<std::__cxx11::basic_string<char, std::char_traits<char>, std::allocator<char> > > >::back()
FUNC 26872 37 0 std::chrono::duration<long, std::ratio<1l, 1000000000l> >::operator-=(std::chrono::duration<long, std::ratio<1l, 1000000000l> > const&)
FUNC 268a9 1e 0 std::enable_if<std::chrono::__is_duration<std::chrono::duration<long, std::ratio<1l, 1000000000l> > >::value, std::chrono::duration<long, std::ratio<1l, 1000000000l> > >::type std::chrono::duration_cast<std::chrono::duration<long, std::ratio<1l, 1000000000l> >, long, std::ratio<3600l, 1l> >(std::chrono::duration<long, std::ratio<3600l, 1l> > const&)
FUNC 268c8 1e 0 std::reverse_iterator<__gnu_cxx::__normal_iterator<std::__cxx11::basic_string<char, std::char_traits<char>, std::allocator<char> >*, std::vector<std::__cxx11::basic_string<char, std::char_traits<char>, std::allocator<char> >, std::allocator<std::__cxx11::basic_string<char, std::char_traits<char>, std::allocator<char> > > > > >::reverse_iterator(__gnu_cxx::__normal_iterator<std::__cxx11::basic_string<char, std::char_traits<char>, std::allocator<char> >*, std::vector<std::__cxx11::basic_string<char, std::char_traits<char>, std::allocator<char> >, std::allocator<std::__cxx11::basic_string<char, std::char_traits<char>, std::allocator<char> > > > >)
FUNC 268e6 6c 0 bool std::operator==<__gnu_cxx::__normal_iterator<std::__cxx11::basic_string<char, std::char_traits<char>, std::allocator<char> >*, std::vector<std::__cxx11::basic_string<char, std::char_traits<char>, std::allocator<char> >, std::allocator<std::__cxx11::basic_string<char, std::char_traits<char>, std::allocator<char> > > > > >(std::reverse_iterator<__gnu_cxx::__normal_iterator<std::__cxx11::basic_string<char, std::char_traits<char>, std::allocator<char> >*, std::vector<std::__cxx11::basic_string<char, std::char_traits<char>, std::allocator<char> >, std::allocator<std::__cxx11::basic_string<char, std::char_traits<char>, std::allocator<char> > > > > > const&, std::reverse_iterator<__gnu_cxx::__normal_iterator<std::__cxx11::basic_string<char, std::char_traits<char>, std::allocator<char> >*, std::vector<std::__cxx11::basic_string<char, std::char_traits<char>, std::allocator<char> >, std::allocator<std::__cxx11::basic_string<char, std::char_traits<char>, std::allocator<char> > > > > > const&)
FUNC 26952 4c 0 std::vector<std::__cxx11::basic_string<char, std::char_traits<char>, std::allocator<char> >, std::allocator<std::__cxx11::basic_string<char, std::char_traits<char>, std::allocator<char> > > >::begin()
FUNC 2699e 24 0 __gnu_cxx::__normal_iterator<std::__cxx11::basic_string<char, std::char_traits<char>, std::allocator<char> >*, std::vector<std::__cxx11::basic_string<char, std::char_traits<char>, std::allocator<char> >, std::allocator<std::__cxx11::basic_string<char, std::char_traits<char>, std::allocator<char> > > > >::operator--()
FUNC 269c2 24 0 std::vector<std::__cxx11::basic_string<char, std::char_traits<char>, std::allocator<char> >, std::allocator<std::__cxx11::basic_string<char, std::char_traits<char>, std::allocator<char> > > >::operator[](unsigned long)
FUNC 269e6 15 0 __gnu_cxx::__normal_iterator<std::__cxx11::basic_string<char, std::char_traits<char>, std::allocator<char> >*, std::vector<std::__cxx11::basic_string<char, std::char_traits<char>, std::allocator<char> >, std::allocator<std::__cxx11::basic_string<char, std::char_traits<char>, std::allocator<char> > > > >::operator*() const
FUNC 269fc 1a 0 std::__weak_count<(__gnu_cxx::_Lock_policy)2>::__weak_count()
FUNC 26a16 35 0 std::shared_ptr<spdlog::sinks::sink>* std::__uninitialized_copy_a<__gnu_cxx::__normal_iterator<std::shared_ptr<spdlog::sinks::sink>*, std::vector<std::shared_ptr<spdlog::sinks::sink>, std::allocator<std::shared_ptr<spdlog::sinks::sink> > > >, std::shared_ptr<spdlog::sinks::sink>*, std::shared_ptr<spdlog::sinks::sink> >(__gnu_cxx::__normal_iterator<std::shared_ptr<spdlog::sinks::sink>*, std::vector<std::shared_ptr<spdlog::sinks::sink>, std::allocator<std::shared_ptr<spdlog::sinks::sink> > > >, __gnu_cxx::__normal_iterator<std::shared_ptr<spdlog::sinks::sink>*, std::vector<std::shared_ptr<spdlog::sinks::sink>, std::allocator<std::shared_ptr<spdlog::sinks::sink> > > >, std::shared_ptr<spdlog::sinks::sink>*, std::allocator<std::shared_ptr<spdlog::sinks::sink> >&)
FUNC 26a4b 1e 0 spdlog::formatter*& std::__get_helper<0ul, spdlog::formatter*, std::default_delete<spdlog::formatter> >(std::_Tuple_impl<0ul, spdlog::formatter*, std::default_delete<spdlog::formatter> >&)
FUNC 26a69 1e 0 std::tuple_element<1ul, std::tuple<spdlog::formatter*, std::default_delete<spdlog::formatter> > >::type& std::get<1ul, spdlog::formatter*, std::default_delete<spdlog::formatter> >(std::tuple<spdlog::formatter*, std::default_delete<spdlog::formatter> >&)
FUNC 26a88 65 0 std::_Vector_base<std::__cxx11::basic_string<char, std::char_traits<char>, std::allocator<char> >, std::allocator<std::__cxx11::basic_string<char, std::char_traits<char>, std::allocator<char> > > >::_Vector_base(unsigned long, std::allocator<std::__cxx11::basic_string<char, std::char_traits<char>, std::allocator<char> > > const&)
FUNC 26aee 44 0 std::vector<std::__cxx11::basic_string<char, std::char_traits<char>, std::allocator<char> >, std::allocator<std::__cxx11::basic_string<char, std::char_traits<char>, std::allocator<char> > > >::_M_default_initialize(unsigned long)
FUNC 26b32 12 0 std::remove_reference<std::vector<std::__cxx11::basic_string<char, std::char_traits<char>, std::allocator<char> >, std::allocator<std::__cxx11::basic_string<char, std::char_traits<char>, std::allocator<char> > > >&>::type&& std::move<std::vector<std::__cxx11::basic_string<char, std::char_traits<char>, std::allocator<char> >, std::allocator<std::__cxx11::basic_string<char, std::char_traits<char>, std::allocator<char> > > >&>(std::vector<std::__cxx11::basic_string<char, std::char_traits<char>, std::allocator<char> >, std::allocator<std::__cxx11::basic_string<char, std::char_traits<char>, std::allocator<char> > > >&)
FUNC 26b44 3c 0 std::vector<std::__cxx11::basic_string<char, std::char_traits<char>, std::allocator<char> >, std::allocator<std::__cxx11::basic_string<char, std::char_traits<char>, std::allocator<char> > > >::operator=(std::vector<std::__cxx11::basic_string<char, std::char_traits<char>, std::allocator<char> >, std::allocator<std::__cxx11::basic_string<char, std::char_traits<char>, std::allocator<char> > > >&&)
FUNC 26b80 21 0 __gnu_cxx::__normal_iterator<std::__cxx11::basic_string<char, std::char_traits<char>, std::allocator<char> >*, std::vector<std::__cxx11::basic_string<char, std::char_traits<char>, std::allocator<char> >, std::allocator<std::__cxx11::basic_string<char, std::char_traits<char>, std::allocator<char> > > > >::__normal_iterator(std::__cxx11::basic_string<char, std::char_traits<char>, std::allocator<char> >* const&)
FUNC 26ba2 103 0 std::vector<std::__cxx11::basic_string<char, std::char_traits<char>, std::allocator<char> >, std::allocator<std::__cxx11::basic_string<char, std::char_traits<char>, std::allocator<char> > > >::_M_check_len(unsigned long, char const*) const
FUNC 26ca5 46 0 __gnu_cxx::__normal_iterator<std::__cxx11::basic_string<char, std::char_traits<char>, std::allocator<char> >*, std::vector<std::__cxx11::basic_string<char, std::char_traits<char>, std::allocator<char> >, std::allocator<std::__cxx11::basic_string<char, std::char_traits<char>, std::allocator<char> > > > >::difference_type __gnu_cxx::operator-<std::__cxx11::basic_string<char, std::char_traits<char>, std::allocator<char> >*, std::vector<std::__cxx11::basic_string<char, std::char_traits<char>, std::allocator<char> >, std::allocator<std::__cxx11::basic_string<char, std::char_traits<char>, std::allocator<char> > > > >(__gnu_cxx::__normal_iterator<std::__cxx11::basic_string<char, std::char_traits<char>, std::allocator<char> >*, std::vector<std::__cxx11::basic_string<char, std::char_traits<char>, std::allocator<char> >, std::allocator<std::__cxx11::basic_string<char, std::char_traits<char>, std::allocator<char> > > > > const&, __gnu_cxx::__normal_iterator<std::__cxx11::basic_string<char, std::char_traits<char>, std::allocator<char> >*, std::vector<std::__cxx11::basic_string<char, std::char_traits<char>, std::allocator<char> >, std::allocator<std::__cxx11::basic_string<char, std::char_traits<char>, std::allocator<char> > > > > const&)
FUNC 26ceb 36 0 std::vector<std::__cxx11::basic_string<char, std::char_traits<char>, std::allocator<char> >, std::allocator<std::__cxx11::basic_string<char, std::char_traits<char>, std::allocator<char> > > >::_S_relocate(std::__cxx11::basic_string<char, std::char_traits<char>, std::allocator<char> >*, std::__cxx11::basic_string<char, std::char_traits<char>, std::allocator<char> >*, std::__cxx11::basic_string<char, std::char_traits<char>, std::allocator<char> >*, std::allocator<std::__cxx11::basic_string<char, std::char_traits<char>, std::allocator<char> > >&)
FUNC 26d22 12 0 __gnu_cxx::__normal_iterator<std::__cxx11::basic_string<char, std::char_traits<char>, std::allocator<char> >*, std::vector<std::__cxx11::basic_string<char, std::char_traits<char>, std::allocator<char> >, std::allocator<std::__cxx11::basic_string<char, std::char_traits<char>, std::allocator<char> > > > >::base() const
FUNC 26d34 69 0 __gnu_cxx::__normal_iterator<std::__cxx11::basic_string<char, std::char_traits<char>, std::allocator<char> >*, std::vector<std::__cxx11::basic_string<char, std::char_traits<char>, std::allocator<char> >, std::allocator<std::__cxx11::basic_string<char, std::char_traits<char>, std::allocator<char> > > > >::operator-(long) const
FUNC 26d9d 6a 0 std::chrono::duration<long, std::ratio<1l, 1000000000l> > std::chrono::__duration_cast_impl<std::chrono::duration<long, std::ratio<1l, 1000000000l> >, std::ratio<3600000000000l, 1l>, long, false, true>::__cast<long, std::ratio<3600l, 1l> >(std::chrono::duration<long, std::ratio<3600l, 1l> > const&)
FUNC 26e08 15 0 std::reverse_iterator<__gnu_cxx::__normal_iterator<std::__cxx11::basic_string<char, std::char_traits<char>, std::allocator<char> >*, std::vector<std::__cxx11::basic_string<char, std::char_traits<char>, std::allocator<char> >, std::allocator<std::__cxx11::basic_string<char, std::char_traits<char>, std::allocator<char> > > > > >::base() const
FUNC 26e1d 3f 0 bool __gnu_cxx::operator==<std::__cxx11::basic_string<char, std::char_traits<char>, std::allocator<char> >*, std::vector<std::__cxx11::basic_string<char, std::char_traits<char>, std::allocator<char> >, std::allocator<std::__cxx11::basic_string<char, std::char_traits<char>, std::allocator<char> > > > >(__gnu_cxx::__normal_iterator<std::__cxx11::basic_string<char, std::char_traits<char>, std::allocator<char> >*, std::vector<std::__cxx11::basic_string<char, std::char_traits<char>, std::allocator<char> >, std::allocator<std::__cxx11::basic_string<char, std::char_traits<char>, std::allocator<char> > > > > const&, __gnu_cxx::__normal_iterator<std::__cxx11::basic_string<char, std::char_traits<char>, std::allocator<char> >*, std::vector<std::__cxx11::basic_string<char, std::char_traits<char>, std::allocator<char> >, std::allocator<std::__cxx11::basic_string<char, std::char_traits<char>, std::allocator<char> > > > > const&)
FUNC 26e5c 39 0 std::shared_ptr<spdlog::sinks::sink>* std::uninitialized_copy<__gnu_cxx::__normal_iterator<std::shared_ptr<spdlog::sinks::sink>*, std::vector<std::shared_ptr<spdlog::sinks::sink>, std::allocator<std::shared_ptr<spdlog::sinks::sink> > > >, std::shared_ptr<spdlog::sinks::sink>*>(__gnu_cxx::__normal_iterator<std::shared_ptr<spdlog::sinks::sink>*, std::vector<std::shared_ptr<spdlog::sinks::sink>, std::allocator<std::shared_ptr<spdlog::sinks::sink> > > >, __gnu_cxx::__normal_iterator<std::shared_ptr<spdlog::sinks::sink>*, std::vector<std::shared_ptr<spdlog::sinks::sink>, std::allocator<std::shared_ptr<spdlog::sinks::sink> > > >, std::shared_ptr<spdlog::sinks::sink>*)
FUNC 26e95 1e 0 std::_Tuple_impl<0ul, spdlog::formatter*, std::default_delete<spdlog::formatter> >::_M_head(std::_Tuple_impl<0ul, spdlog::formatter*, std::default_delete<spdlog::formatter> >&)
FUNC 26eb3 1e 0 std::default_delete<spdlog::formatter>& std::__get_helper<1ul, std::default_delete<spdlog::formatter>>(std::_Tuple_impl<1ul, std::default_delete<spdlog::formatter>>&)
FUNC 26ed2 5a 0 std::_Vector_base<std::__cxx11::basic_string<char, std::char_traits<char>, std::allocator<char> >, std::allocator<std::__cxx11::basic_string<char, std::char_traits<char>, std::allocator<char> > > >::_M_create_storage(unsigned long)
FUNC 26f2c 2d 0 std::__cxx11::basic_string<char, std::char_traits<char>, std::allocator<char> >* std::__uninitialized_default_n_a<std::__cxx11::basic_string<char, std::char_traits<char>, std::allocator<char> >*, unsigned long, std::__cxx11::basic_string<char, std::char_traits<char>, std::allocator<char> > >(std::__cxx11::basic_string<char, std::char_traits<char>, std::allocator<char> >*, unsigned long, std::allocator<std::__cxx11::basic_string<char, std::char_traits<char>, std::allocator<char> > >&)
FUNC 26f5a d3 0 std::vector<std::__cxx11::basic_string<char, std::char_traits<char>, std::allocator<char> >, std::allocator<std::__cxx11::basic_string<char, std::char_traits<char>, std::allocator<char> > > >::_M_move_assign(std::vector<std::__cxx11::basic_string<char, std::char_traits<char>, std::allocator<char> >, std::allocator<std::__cxx11::basic_string<char, std::char_traits<char>, std::allocator<char> > > >&&, std::integral_constant<bool, true>)
FUNC 2702e 26 0 std::vector<std::__cxx11::basic_string<char, std::char_traits<char>, std::allocator<char> >, std::allocator<std::__cxx11::basic_string<char, std::char_traits<char>, std::allocator<char> > > >::max_size() const
FUNC 27054 67 0 std::__cxx11::basic_string<char, std::char_traits<char>, std::allocator<char> >* std::__relocate_a<std::__cxx11::basic_string<char, std::char_traits<char>, std::allocator<char> >*, std::__cxx11::basic_string<char, std::char_traits<char>, std::allocator<char> >*, std::allocator<std::__cxx11::basic_string<char, std::char_traits<char>, std::allocator<char> > > >(std::__cxx11::basic_string<char, std::char_traits<char>, std::allocator<char> >*, std::__cxx11::basic_string<char, std::char_traits<char>, std::allocator<char> >*, std::__cxx11::basic_string<char, std::char_traits<char>, std::allocator<char> >*, std::allocator<std::__cxx11::basic_string<char, std::char_traits<char>, std::allocator<char> > >&)
FUNC 270bc 15 0 std::chrono::duration<long, std::ratio<3600l, 1l> >::count() const
FUNC 270d1 31 0 std::shared_ptr<spdlog::sinks::sink>* std::__uninitialized_copy<false>::__uninit_copy<__gnu_cxx::__normal_iterator<std::shared_ptr<spdlog::sinks::sink>*, std::vector<std::shared_ptr<spdlog::sinks::sink>, std::allocator<std::shared_ptr<spdlog::sinks::sink> > > >, std::shared_ptr<spdlog::sinks::sink>*>(__gnu_cxx::__normal_iterator<std::shared_ptr<spdlog::sinks::sink>*, std::vector<std::shared_ptr<spdlog::sinks::sink>, std::allocator<std::shared_ptr<spdlog::sinks::sink> > > >, __gnu_cxx::__normal_iterator<std::shared_ptr<spdlog::sinks::sink>*, std::vector<std::shared_ptr<spdlog::sinks::sink>, std::allocator<std::shared_ptr<spdlog::sinks::sink> > > >, std::shared_ptr<spdlog::sinks::sink>*)
FUNC 27102 12 0 std::_Head_base<0ul, spdlog::formatter*, false>::_M_head(std::_Head_base<0ul, spdlog::formatter*, false>&)
FUNC 27114 1e 0 std::_Tuple_impl<1ul, std::default_delete<spdlog::formatter> >::_M_head(std::_Tuple_impl<1ul, std::default_delete<spdlog::formatter> >&)
FUNC 27132 2d 0 std::__cxx11::basic_string<char, std::char_traits<char>, std::allocator<char> >* std::__uninitialized_default_n<std::__cxx11::basic_string<char, std::char_traits<char>, std::allocator<char> >*, unsigned long>(std::__cxx11::basic_string<char, std::char_traits<char>, std::allocator<char> >*, unsigned long)
FUNC 27160 45 0 std::_Vector_base<std::__cxx11::basic_string<char, std::char_traits<char>, std::allocator<char> >, std::allocator<std::__cxx11::basic_string<char, std::char_traits<char>, std::allocator<char> > > >::get_allocator() const
FUNC 271a6 2a 0 std::vector<std::__cxx11::basic_string<char, std::char_traits<char>, std::allocator<char> >, std::allocator<std::__cxx11::basic_string<char, std::char_traits<char>, std::allocator<char> > > >::vector(std::allocator<std::__cxx11::basic_string<char, std::char_traits<char>, std::allocator<char> > > const&)
FUNC 271d0 7f 0 std::_Vector_base<std::__cxx11::basic_string<char, std::char_traits<char>, std::allocator<char> >, std::allocator<std::__cxx11::basic_string<char, std::char_traits<char>, std::allocator<char> > > >::_Vector_impl_data::_M_swap_data(std::_Vector_base<std::__cxx11::basic_string<char, std::char_traits<char>, std::allocator<char> >, std::allocator<std::__cxx11::basic_string<char, std::char_traits<char>, std::allocator<char> > > >::_Vector_impl_data&)
FUNC 27250 12 0 std::_Vector_base<std::__cxx11::basic_string<char, std::char_traits<char>, std::allocator<char> >, std::allocator<std::__cxx11::basic_string<char, std::char_traits<char>, std::allocator<char> > > >::_M_get_Tp_allocator() const
FUNC 27262 12 0 std::__cxx11::basic_string<char, std::char_traits<char>, std::allocator<char> >* std::__niter_base<std::__cxx11::basic_string<char, std::char_traits<char>, std::allocator<char> >*>(std::__cxx11::basic_string<char, std::char_traits<char>, std::allocator<char> >*)
FUNC 27274 75 0 std::__cxx11::basic_string<char, std::char_traits<char>, std::allocator<char> >* std::__relocate_a_1<std::__cxx11::basic_string<char, std::char_traits<char>, std::allocator<char> >*, std::__cxx11::basic_string<char, std::char_traits<char>, std::allocator<char> >*, std::allocator<std::__cxx11::basic_string<char, std::char_traits<char>, std::allocator<char> > > >(std::__cxx11::basic_string<char, std::char_traits<char>, std::allocator<char> >*, std::__cxx11::basic_string<char, std::char_traits<char>, std::allocator<char> >*, std::__cxx11::basic_string<char, std::char_traits<char>, std::allocator<char> >*, std::allocator<std::__cxx11::basic_string<char, std::char_traits<char>, std::allocator<char> > >&)
FUNC 272e9 7b 0 std::shared_ptr<spdlog::sinks::sink>* std::__do_uninit_copy<__gnu_cxx::__normal_iterator<std::shared_ptr<spdlog::sinks::sink>*, std::vector<std::shared_ptr<spdlog::sinks::sink>, std::allocator<std::shared_ptr<spdlog::sinks::sink> > > >, std::shared_ptr<spdlog::sinks::sink>*>(__gnu_cxx::__normal_iterator<std::shared_ptr<spdlog::sinks::sink>*, std::vector<std::shared_ptr<spdlog::sinks::sink>, std::allocator<std::shared_ptr<spdlog::sinks::sink> > > >, __gnu_cxx::__normal_iterator<std::shared_ptr<spdlog::sinks::sink>*, std::vector<std::shared_ptr<spdlog::sinks::sink>, std::allocator<std::shared_ptr<spdlog::sinks::sink> > > >, std::shared_ptr<spdlog::sinks::sink>*)
FUNC 27364 12 0 std::_Head_base<1ul, std::default_delete<spdlog::formatter>, true>::_M_head(std::_Head_base<1ul, std::default_delete<spdlog::formatter>, true>&)
FUNC 27376 49 0 std::__cxx11::basic_string<char, std::char_traits<char>, std::allocator<char> >* std::__uninitialized_default_n_1<false>::__uninit_default_n<std::__cxx11::basic_string<char, std::char_traits<char>, std::allocator<char> >*, unsigned long>(std::__cxx11::basic_string<char, std::char_traits<char>, std::allocator<char> >*, unsigned long)
FUNC 273c0 41 0 std::_Vector_base<std::__cxx11::basic_string<char, std::char_traits<char>, std::allocator<char> >, std::allocator<std::__cxx11::basic_string<char, std::char_traits<char>, std::allocator<char> > > >::_Vector_impl_data::_M_copy_data(std::_Vector_base<std::__cxx11::basic_string<char, std::char_traits<char>, std::allocator<char> >, std::allocator<std::__cxx11::basic_string<char, std::char_traits<char>, std::allocator<char> > > >::_Vector_impl_data const&)
FUNC 27401 12 0 std::remove_reference<std::allocator<std::__cxx11::basic_string<char, std::char_traits<char>, std::allocator<char> > >&>::type&& std::move<std::allocator<std::__cxx11::basic_string<char, std::char_traits<char>, std::allocator<char> > >&>(std::allocator<std::__cxx11::basic_string<char, std::char_traits<char>, std::allocator<char> > >&)
FUNC 27413 c3 0 void std::__relocate_object_a<std::__cxx11::basic_string<char, std::char_traits<char>, std::allocator<char> >, std::__cxx11::basic_string<char, std::char_traits<char>, std::allocator<char> >, std::allocator<std::__cxx11::basic_string<char, std::char_traits<char>, std::allocator<char> > > >(std::__cxx11::basic_string<char, std::char_traits<char>, std::allocator<char> >*, std::__cxx11::basic_string<char, std::char_traits<char>, std::allocator<char> >*, std::allocator<std::__cxx11::basic_string<char, std::char_traits<char>, std::allocator<char> > >&)
FUNC 274d6 3f 0 bool __gnu_cxx::operator!=<std::shared_ptr<spdlog::sinks::sink>*, std::vector<std::shared_ptr<spdlog::sinks::sink>, std::allocator<std::shared_ptr<spdlog::sinks::sink> > > >(__gnu_cxx::__normal_iterator<std::shared_ptr<spdlog::sinks::sink>*, std::vector<std::shared_ptr<spdlog::sinks::sink>, std::allocator<std::shared_ptr<spdlog::sinks::sink> > > > const&, __gnu_cxx::__normal_iterator<std::shared_ptr<spdlog::sinks::sink>*, std::vector<std::shared_ptr<spdlog::sinks::sink>, std::allocator<std::shared_ptr<spdlog::sinks::sink> > > > const&)
FUNC 27516 24 0 __gnu_cxx::__normal_iterator<std::shared_ptr<spdlog::sinks::sink>*, std::vector<std::shared_ptr<spdlog::sinks::sink>, std::allocator<std::shared_ptr<spdlog::sinks::sink> > > >::operator++()
FUNC 2753a 47 0 void std::_Construct<std::shared_ptr<spdlog::sinks::sink>, std::shared_ptr<spdlog::sinks::sink>&>(std::shared_ptr<spdlog::sinks::sink>*, std::shared_ptr<spdlog::sinks::sink>&)
FUNC 27581 2c 0 void std::_Construct<std::__cxx11::basic_string<char, std::char_traits<char>, std::allocator<char> >>(std::__cxx11::basic_string<char, std::char_traits<char>, std::allocator<char> >*)
FUNC 275ad 12 0 std::shared_ptr<spdlog::sinks::sink>& std::forward<std::shared_ptr<spdlog::sinks::sink>&>(std::remove_reference<std::shared_ptr<spdlog::sinks::sink>&>::type&)
FUNC 275c0 63 0 spdlog::sinks::daily_file_sink<std::mutex, spdlog::sinks::daily_filename_calculator>::~daily_file_sink()
FUNC 27624 2f 0 spdlog::sinks::daily_file_sink<std::mutex, spdlog::sinks::daily_filename_calculator>::~daily_file_sink()
FUNC 27654 31 0 std::_Sp_counted_ptr_inplace<spdlog::logger, std::allocator<void>, (__gnu_cxx::_Lock_policy)2>::~_Sp_counted_ptr_inplace()
FUNC 27686 2f 0 std::_Sp_counted_ptr_inplace<spdlog::logger, std::allocator<void>, (__gnu_cxx::_Lock_policy)2>::~_Sp_counted_ptr_inplace()
FUNC 276b6 4c 0 std::_Sp_counted_ptr_inplace<spdlog::logger, std::allocator<void>, (__gnu_cxx::_Lock_policy)2>::_M_dispose()
FUNC 27702 90 0 std::_Sp_counted_ptr_inplace<spdlog::logger, std::allocator<void>, (__gnu_cxx::_Lock_policy)2>::_M_destroy()
FUNC 27792 66 0 std::_Sp_counted_ptr_inplace<spdlog::logger, std::allocator<void>, (__gnu_cxx::_Lock_policy)2>::_M_get_deleter(std::type_info const&)
FUNC 277f8 31 0 std::_Sp_counted_ptr_inplace<spdlog::async_logger, std::allocator<void>, (__gnu_cxx::_Lock_policy)2>::~_Sp_counted_ptr_inplace()
FUNC 2782a 2f 0 std::_Sp_counted_ptr_inplace<spdlog::async_logger, std::allocator<void>, (__gnu_cxx::_Lock_policy)2>::~_Sp_counted_ptr_inplace()
FUNC 2785a 4c 0 std::_Sp_counted_ptr_inplace<spdlog::async_logger, std::allocator<void>, (__gnu_cxx::_Lock_policy)2>::_M_dispose()
FUNC 278a6 90 0 std::_Sp_counted_ptr_inplace<spdlog::async_logger, std::allocator<void>, (__gnu_cxx::_Lock_policy)2>::_M_destroy()
FUNC 27936 66 0 std::_Sp_counted_ptr_inplace<spdlog::async_logger, std::allocator<void>, (__gnu_cxx::_Lock_policy)2>::_M_get_deleter(std::type_info const&)
FUNC 2799c 31 0 std::_Sp_counted_ptr_inplace<spdlog::sinks::rotating_file_sink<std::mutex>, std::allocator<void>, (__gnu_cxx::_Lock_policy)2>::~_Sp_counted_ptr_inplace()
FUNC 279ce 2f 0 std::_Sp_counted_ptr_inplace<spdlog::sinks::rotating_file_sink<std::mutex>, std::allocator<void>, (__gnu_cxx::_Lock_policy)2>::~_Sp_counted_ptr_inplace()
FUNC 279fe 4c 0 std::_Sp_counted_ptr_inplace<spdlog::sinks::rotating_file_sink<std::mutex>, std::allocator<void>, (__gnu_cxx::_Lock_policy)2>::_M_dispose()
FUNC 27a4a 90 0 std::_Sp_counted_ptr_inplace<spdlog::sinks::rotating_file_sink<std::mutex>, std::allocator<void>, (__gnu_cxx::_Lock_policy)2>::_M_destroy()
FUNC 27ada 66 0 std::_Sp_counted_ptr_inplace<spdlog::sinks::rotating_file_sink<std::mutex>, std::allocator<void>, (__gnu_cxx::_Lock_policy)2>::_M_get_deleter(std::type_info const&)
FUNC 27b40 31 0 std::_Sp_counted_ptr_inplace<spdlog::sinks::daily_file_sink<std::mutex, spdlog::sinks::daily_filename_calculator>, std::allocator<void>, (__gnu_cxx::_Lock_policy)2>::~_Sp_counted_ptr_inplace()
FUNC 27b72 2f 0 std::_Sp_counted_ptr_inplace<spdlog::sinks::daily_file_sink<std::mutex, spdlog::sinks::daily_filename_calculator>, std::allocator<void>, (__gnu_cxx::_Lock_policy)2>::~_Sp_counted_ptr_inplace()
FUNC 27ba2 4c 0 std::_Sp_counted_ptr_inplace<spdlog::sinks::daily_file_sink<std::mutex, spdlog::sinks::daily_filename_calculator>, std::allocator<void>, (__gnu_cxx::_Lock_policy)2>::_M_dispose()
FUNC 27bee 90 0 std::_Sp_counted_ptr_inplace<spdlog::sinks::daily_file_sink<std::mutex, spdlog::sinks::daily_filename_calculator>, std::allocator<void>, (__gnu_cxx::_Lock_policy)2>::_M_destroy()
FUNC 27c7e 66 0 std::_Sp_counted_ptr_inplace<spdlog::sinks::daily_file_sink<std::mutex, spdlog::sinks::daily_filename_calculator>, std::allocator<void>, (__gnu_cxx::_Lock_policy)2>::_M_get_deleter(std::type_info const&)
FUNC 27ce4 31 0 std::_Sp_counted_ptr_inplace<spdlog::sinks::ansicolor_stdout_sink<spdlog::details::console_mutex>, std::allocator<void>, (__gnu_cxx::_Lock_policy)2>::~_Sp_counted_ptr_inplace()
FUNC 27d16 2f 0 std::_Sp_counted_ptr_inplace<spdlog::sinks::ansicolor_stdout_sink<spdlog::details::console_mutex>, std::allocator<void>, (__gnu_cxx::_Lock_policy)2>::~_Sp_counted_ptr_inplace()
FUNC 27d46 4c 0 std::_Sp_counted_ptr_inplace<spdlog::sinks::ansicolor_stdout_sink<spdlog::details::console_mutex>, std::allocator<void>, (__gnu_cxx::_Lock_policy)2>::_M_dispose()
FUNC 27d92 90 0 std::_Sp_counted_ptr_inplace<spdlog::sinks::ansicolor_stdout_sink<spdlog::details::console_mutex>, std::allocator<void>, (__gnu_cxx::_Lock_policy)2>::_M_destroy()
FUNC 27e22 66 0 std::_Sp_counted_ptr_inplace<spdlog::sinks::ansicolor_stdout_sink<spdlog::details::console_mutex>, std::allocator<void>, (__gnu_cxx::_Lock_policy)2>::_M_get_deleter(std::type_info const&)
FUNC 27e88 31 0 std::_Sp_counted_ptr_inplace<spdlog::details::thread_pool, std::allocator<void>, (__gnu_cxx::_Lock_policy)2>::~_Sp_counted_ptr_inplace()
FUNC 27eba 2f 0 std::_Sp_counted_ptr_inplace<spdlog::details::thread_pool, std::allocator<void>, (__gnu_cxx::_Lock_policy)2>::~_Sp_counted_ptr_inplace()
FUNC 27eea 4c 0 std::_Sp_counted_ptr_inplace<spdlog::details::thread_pool, std::allocator<void>, (__gnu_cxx::_Lock_policy)2>::_M_dispose()
FUNC 27f36 90 0 std::_Sp_counted_ptr_inplace<spdlog::details::thread_pool, std::allocator<void>, (__gnu_cxx::_Lock_policy)2>::_M_destroy()
FUNC 27fc6 66 0 std::_Sp_counted_ptr_inplace<spdlog::details::thread_pool, std::allocator<void>, (__gnu_cxx::_Lock_policy)2>::_M_get_deleter(std::type_info const&)
FUNC 2802c 234 0 spdlog::sinks::daily_file_sink<std::mutex, spdlog::sinks::daily_filename_calculator>::sink_it_(spdlog::details::log_msg const&)
FUNC 28260 23 0 spdlog::sinks::daily_file_sink<std::mutex, spdlog::sinks::daily_filename_calculator>::flush_()
FUNC 28284 1e 0 std::_Sp_counted_ptr_inplace<spdlog::logger, std::allocator<void>, (__gnu_cxx::_Lock_policy)2>::_Impl::_M_alloc()
FUNC 282a2 1e 0 std::_Sp_counted_ptr_inplace<spdlog::async_logger, std::allocator<void>, (__gnu_cxx::_Lock_policy)2>::_Impl::_M_alloc()
FUNC 282c0 1e 0 std::_Sp_counted_ptr_inplace<spdlog::sinks::rotating_file_sink<std::mutex>, std::allocator<void>, (__gnu_cxx::_Lock_policy)2>::_Impl::_M_alloc()
FUNC 282de 1e 0 std::_Sp_counted_ptr_inplace<spdlog::sinks::daily_file_sink<std::mutex, spdlog::sinks::daily_filename_calculator>, std::allocator<void>, (__gnu_cxx::_Lock_policy)2>::_Impl::_M_alloc()
FUNC 282fc 1e 0 std::_Sp_counted_ptr_inplace<spdlog::sinks::ansicolor_stdout_sink<spdlog::details::console_mutex>, std::allocator<void>, (__gnu_cxx::_Lock_policy)2>::_Impl::_M_alloc()
FUNC 2831a 1e 0 std::_Sp_counted_ptr_inplace<spdlog::details::thread_pool, std::allocator<void>, (__gnu_cxx::_Lock_policy)2>::_Impl::_M_alloc()
FUNC 28338 2c 0 bool std::chrono::operator>=<std::chrono::_V2::system_clock, std::chrono::duration<long, std::ratio<1l, 1000000000l> >, std::chrono::duration<long, std::ratio<1l, 1000000000l> > >(std::chrono::time_point<std::chrono::_V2::system_clock, std::chrono::duration<long, std::ratio<1l, 1000000000l> > > const&, std::chrono::time_point<std::chrono::_V2::system_clock, std::chrono::duration<long, std::ratio<1l, 1000000000l> > > const&)
FUNC 28364 1e 0 std::unique_ptr<spdlog::formatter, std::default_delete<spdlog::formatter> >::operator->() const
FUNC 28382 21c 0 spdlog::sinks::daily_file_sink<std::mutex, spdlog::sinks::daily_filename_calculator>::delete_old_()
FUNC 2859e 12 0 std::_Sp_ebo_helper<0, std::allocator<void>, true>::_S_get(std::_Sp_ebo_helper<0, std::allocator<void>, true>&)
FUNC 285b0 26 0 void std::_Destroy<spdlog::logger>(spdlog::logger*)
FUNC 285d6 55 0 spdlog::async_logger::~async_logger()
FUNC 2862c 2f 0 spdlog::async_logger::~async_logger()
FUNC 2865b 1f 0 void std::_Destroy<spdlog::async_logger>(spdlog::async_logger*)
FUNC 2867a 51 0 spdlog::sinks::rotating_file_sink<std::mutex>::~rotating_file_sink()
FUNC 286cc 2f 0 spdlog::sinks::rotating_file_sink<std::mutex>::~rotating_file_sink()
FUNC 286fb 1f 0 void std::_Destroy<spdlog::sinks::rotating_file_sink<std::mutex> >(spdlog::sinks::rotating_file_sink<std::mutex>*)
FUNC 2871a 1f 0 void std::_Destroy<spdlog::sinks::daily_file_sink<std::mutex, spdlog::sinks::daily_filename_calculator> >(spdlog::sinks::daily_file_sink<std::mutex, spdlog::sinks::daily_filename_calculator>*)
FUNC 28739 26 0 void std::_Destroy<spdlog::sinks::ansicolor_stdout_sink<spdlog::details::console_mutex> >(spdlog::sinks::ansicolor_stdout_sink<spdlog::details::console_mutex>*)
FUNC 2875f 1f 0 void std::_Destroy<spdlog::details::thread_pool>(spdlog::details::thread_pool*)
FUNC 2877e 1e 0 std::unique_ptr<spdlog::formatter, std::default_delete<spdlog::formatter> >::get() const
FUNC 2879c 53 0 spdlog::details::circular_q<std::__cxx11::basic_string<char, std::char_traits<char>, std::allocator<char> > >::full() const
FUNC 287f0 2d 0 spdlog::details::circular_q<std::__cxx11::basic_string<char, std::char_traits<char>, std::allocator<char> > >::front()
FUNC 2881e 3b 0 spdlog::details::circular_q<std::__cxx11::basic_string<char, std::char_traits<char>, std::allocator<char> > >::pop_front()
FUNC 2885a 21 0 std::__uniq_ptr_impl<spdlog::formatter, std::default_delete<spdlog::formatter> >::_M_ptr() const
FUNC 2887b 1e 0 std::tuple_element<0ul, std::tuple<spdlog::formatter*, std::default_delete<spdlog::formatter> > >::type const& std::get<0ul, spdlog::formatter*, std::default_delete<spdlog::formatter> >(std::tuple<spdlog::formatter*, std::default_delete<spdlog::formatter> > const&)
FUNC 28899 1e 0 spdlog::formatter* const& std::__get_helper<0ul, spdlog::formatter*, std::default_delete<spdlog::formatter> >(std::_Tuple_impl<0ul, spdlog::formatter*, std::default_delete<spdlog::formatter> > const&)
FUNC 288b7 1e 0 std::_Tuple_impl<0ul, spdlog::formatter*, std::default_delete<spdlog::formatter> >::_M_head(std::_Tuple_impl<0ul, spdlog::formatter*, std::default_delete<spdlog::formatter> > const&)
FUNC 288d5 12 0 std::_Head_base<0ul, spdlog::formatter*, false>::_M_head(std::_Head_base<0ul, spdlog::formatter*, false> const&)
FUNC 288e8 ae 0 core::CrashpadHandler::instance()
FUNC 28996 7c 0 core::CrashpadHandler::CrashpadHandler()
FUNC 28a12 46 0 core::CrashpadHandler::~CrashpadHandler()
FUNC 28a58 428 0 core::CrashpadHandler::initialize(std::__cxx11::basic_string<char, std::char_traits<char>, std::allocator<char> > const&, std::__cxx11::basic_string<char, std::char_traits<char>, std::allocator<char> > const&, std::__cxx11::basic_string<char, std::char_traits<char>, std::allocator<char> > const&, std::map<std::__cxx11::basic_string<char, std::char_traits<char>, std::allocator<char> >, std::__cxx11::basic_string<char, std::char_traits<char>, std::allocator<char> >, std::less<std::__cxx11::basic_string<char, std::char_traits<char>, std::allocator<char> > >, std::allocator<std::pair<std::__cxx11::basic_string<char, std::char_traits<char>, std::allocator<char> > const, std::__cxx11::basic_string<char, std::char_traits<char>, std::allocator<char> > > > > const&, std::vector<std::__cxx11::basic_string<char, std::char_traits<char>, std::allocator<char> >, std::allocator<std::__cxx11::basic_string<char, std::char_traits<char>, std::allocator<char> > > > const&)
FUNC 28e80 2e 0 core::CrashpadHandler::setAnnotations(std::map<std::__cxx11::basic_string<char, std::char_traits<char>, std::allocator<char> >, std::__cxx11::basic_string<char, std::char_traits<char>, std::allocator<char> >, std::less<std::__cxx11::basic_string<char, std::char_traits<char>, std::allocator<char> > >, std::allocator<std::pair<std::__cxx11::basic_string<char, std::char_traits<char>, std::allocator<char> > const, std::__cxx11::basic_string<char, std::char_traits<char>, std::allocator<char> > > > > const&)
FUNC 28eae 15 0 core::CrashpadHandler::isInitialized() const
FUNC 28ec4 2a 0 std::error_code::error_code()
FUNC 28eee 19 0 std::error_code::operator bool() const
FUNC 28f08 28 0 std::_Vector_base<base::FilePath, std::allocator<base::FilePath> >::_Vector_impl::~_Vector_impl()
FUNC 28f30 1f 0 std::_Vector_base<base::FilePath, std::allocator<base::FilePath> >::_Vector_base()
FUNC 28f50 1f 0 std::vector<base::FilePath, std::allocator<base::FilePath> >::vector()
FUNC 28f70 31 0 std::_Vector_base<base::FilePath, std::allocator<base::FilePath> >::_Vector_impl::_Vector_impl()
FUNC 28fa2 51 0 std::_Vector_base<base::FilePath, std::allocator<base::FilePath> >::~_Vector_base()
FUNC 28ff4 5a 0 std::vector<base::FilePath, std::allocator<base::FilePath> >::~vector()
FUNC 2904e 4c 0 std::vector<std::__cxx11::basic_string<char, std::char_traits<char>, std::allocator<char> >, std::allocator<std::__cxx11::basic_string<char, std::char_traits<char>, std::allocator<char> > > >::begin() const
FUNC 2909a 50 0 std::vector<std::__cxx11::basic_string<char, std::char_traits<char>, std::allocator<char> >, std::allocator<std::__cxx11::basic_string<char, std::char_traits<char>, std::allocator<char> > > >::end() const
FUNC 290ea 3f 0 bool __gnu_cxx::operator!=<std::__cxx11::basic_string<char, std::char_traits<char>, std::allocator<char> > const*, std::vector<std::__cxx11::basic_string<char, std::char_traits<char>, std::allocator<char> >, std::allocator<std::__cxx11::basic_string<char, std::char_traits<char>, std::allocator<char> > > > >(__gnu_cxx::__normal_iterator<std::__cxx11::basic_string<char, std::char_traits<char>, std::allocator<char> > const*, std::vector<std::__cxx11::basic_string<char, std::char_traits<char>, std::allocator<char> >, std::allocator<std::__cxx11::basic_string<char, std::char_traits<char>, std::allocator<char> > > > > const&, __gnu_cxx::__normal_iterator<std::__cxx11::basic_string<char, std::char_traits<char>, std::allocator<char> > const*, std::vector<std::__cxx11::basic_string<char, std::char_traits<char>, std::allocator<char> >, std::allocator<std::__cxx11::basic_string<char, std::char_traits<char>, std::allocator<char> > > > > const&)
FUNC 2912a 24 0 __gnu_cxx::__normal_iterator<std::__cxx11::basic_string<char, std::char_traits<char>, std::allocator<char> > const*, std::vector<std::__cxx11::basic_string<char, std::char_traits<char>, std::allocator<char> >, std::allocator<std::__cxx11::basic_string<char, std::char_traits<char>, std::allocator<char> > > > >::operator++()
FUNC 2914e 15 0 __gnu_cxx::__normal_iterator<std::__cxx11::basic_string<char, std::char_traits<char>, std::allocator<char> > const*, std::vector<std::__cxx11::basic_string<char, std::char_traits<char>, std::allocator<char> >, std::allocator<std::__cxx11::basic_string<char, std::char_traits<char>, std::allocator<char> > > > >::operator*() const
FUNC 29164 35 0 std::vector<base::FilePath, std::allocator<base::FilePath> >::push_back(base::FilePath&&)
FUNC 2919a 32 0 std::_Vector_base<base::FilePath, std::allocator<base::FilePath> >::_Vector_impl_data::_Vector_impl_data()
FUNC 291cc f 0 std::__new_allocator<base::FilePath>::~__new_allocator()
FUNC 291dc 52 0 std::_Vector_base<base::FilePath, std::allocator<base::FilePath> >::_M_deallocate(base::FilePath*, unsigned long)
FUNC 2922e 12 0 std::_Vector_base<base::FilePath, std::allocator<base::FilePath> >::_M_get_Tp_allocator()
FUNC 29240 21 0 __gnu_cxx::__normal_iterator<std::__cxx11::basic_string<char, std::char_traits<char>, std::allocator<char> > const*, std::vector<std::__cxx11::basic_string<char, std::char_traits<char>, std::allocator<char> >, std::allocator<std::__cxx11::basic_string<char, std::char_traits<char>, std::allocator<char> > > > >::__normal_iterator(std::__cxx11::basic_string<char, std::char_traits<char>, std::allocator<char> > const* const&)
FUNC 29262 12 0 __gnu_cxx::__normal_iterator<std::__cxx11::basic_string<char, std::char_traits<char>, std::allocator<char> > const*, std::vector<std::__cxx11::basic_string<char, std::char_traits<char>, std::allocator<char> >, std::allocator<std::__cxx11::basic_string<char, std::char_traits<char>, std::allocator<char> > > > >::base() const
FUNC 29274 12 0 std::remove_reference<base::FilePath&>::type&& std::move<base::FilePath&>(base::FilePath&)
FUNC 29286 12c 0 base::FilePath& std::vector<base::FilePath, std::allocator<base::FilePath> >::emplace_back<base::FilePath>(base::FilePath&&)
FUNC 293b2 2a 0 void std::_Destroy<base::FilePath*>(base::FilePath*, base::FilePath*)
FUNC 293dc 12 0 base::FilePath&& std::forward<base::FilePath>(std::remove_reference<base::FilePath>::type&)
FUNC 293ee 50 0 std::vector<base::FilePath, std::allocator<base::FilePath> >::end()
FUNC 2943e 424 0 void std::vector<base::FilePath, std::allocator<base::FilePath> >::_M_realloc_insert<base::FilePath>(__gnu_cxx::__normal_iterator<base::FilePath*, std::vector<base::FilePath, std::allocator<base::FilePath> > >, base::FilePath&&)
FUNC 29862 66 0 std::vector<base::FilePath, std::allocator<base::FilePath> >::back()
FUNC 298c8 34 0 std::__new_allocator<base::FilePath>::deallocate(base::FilePath*, unsigned long)
FUNC 298fc 3d 0 void std::_Destroy_aux<false>::__destroy<base::FilePath*>(base::FilePath*, base::FilePath*)
FUNC 2993a 21 0 __gnu_cxx::__normal_iterator<base::FilePath*, std::vector<base::FilePath, std::allocator<base::FilePath> > >::__normal_iterator(base::FilePath* const&)
FUNC 2995c 103 0 std::vector<base::FilePath, std::allocator<base::FilePath> >::_M_check_len(unsigned long, char const*) const
FUNC 29a60 4c 0 std::vector<base::FilePath, std::allocator<base::FilePath> >::begin()
FUNC 29aac 46 0 __gnu_cxx::__normal_iterator<base::FilePath*, std::vector<base::FilePath, std::allocator<base::FilePath> > >::difference_type __gnu_cxx::operator-<base::FilePath*, std::vector<base::FilePath, std::allocator<base::FilePath> > >(__gnu_cxx::__normal_iterator<base::FilePath*, std::vector<base::FilePath, std::allocator<base::FilePath> > > const&, __gnu_cxx::__normal_iterator<base::FilePath*, std::vector<base::FilePath, std::allocator<base::FilePath> > > const&)
FUNC 29af2 4d 0 std::_Vector_base<base::FilePath, std::allocator<base::FilePath> >::_M_allocate(unsigned long)
FUNC 29b40 12 0 __gnu_cxx::__normal_iterator<base::FilePath*, std::vector<base::FilePath, std::allocator<base::FilePath> > >::base() const
FUNC 29b52 57 0 base::FilePath* std::__uninitialized_move_if_noexcept_a<base::FilePath*, base::FilePath*, std::allocator<base::FilePath> >(base::FilePath*, base::FilePath*, base::FilePath*, std::allocator<base::FilePath>&)
FUNC 29baa 69 0 __gnu_cxx::__normal_iterator<base::FilePath*, std::vector<base::FilePath, std::allocator<base::FilePath> > >::operator-(long) const
FUNC 29c14 15 0 __gnu_cxx::__normal_iterator<base::FilePath*, std::vector<base::FilePath, std::allocator<base::FilePath> > >::operator*() const
FUNC 29c29 12 0 base::FilePath* std::__addressof<base::FilePath>(base::FilePath&)
FUNC 29c3b 1f 0 void std::_Destroy<base::FilePath>(base::FilePath*)
FUNC 29c5a 26 0 std::vector<base::FilePath, std::allocator<base::FilePath> >::max_size() const
FUNC 29c80 27 0 std::vector<base::FilePath, std::allocator<base::FilePath> >::size() const
FUNC 29ca7 12 0 base::FilePath const* std::__make_move_if_noexcept_iterator<base::FilePath, base::FilePath const*>(base::FilePath*)
FUNC 29cb9 35 0 base::FilePath* std::__uninitialized_copy_a<base::FilePath const*, base::FilePath*, base::FilePath>(base::FilePath const*, base::FilePath const*, base::FilePath*, std::allocator<base::FilePath>&)
FUNC 29cee 81 0 std::vector<base::FilePath, std::allocator<base::FilePath> >::_S_max_size(std::allocator<base::FilePath> const&)
FUNC 29d70 12 0 std::_Vector_base<base::FilePath, std::allocator<base::FilePath> >::_M_get_Tp_allocator() const
FUNC 29d82 6b 0 std::__new_allocator<base::FilePath>::allocate(unsigned long, void const*)
FUNC 29ded 39 0 base::FilePath* std::uninitialized_copy<base::FilePath const*, base::FilePath*>(base::FilePath const*, base::FilePath const*, base::FilePath*)
FUNC 29e26 31 0 base::FilePath* std::__uninitialized_copy<false>::__uninit_copy<base::FilePath const*, base::FilePath*>(base::FilePath const*, base::FilePath const*, base::FilePath*)
FUNC 29e57 9c 0 base::FilePath* std::__do_uninit_copy<base::FilePath const*, base::FilePath*>(base::FilePath const*, base::FilePath const*, base::FilePath*)
FUNC 29ef3 7d 0 void std::_Construct<base::FilePath, base::FilePath const&>(base::FilePath*, base::FilePath const&)
FUNC 29f70 12 0 base::FilePath const& std::forward<base::FilePath const&>(std::remove_reference<base::FilePath const&>::type&)
FUNC 29f82 91 0 Logger::qt_static_metacall(QObject*, QMetaObject::Call, int, void**)
FUNC 2a014 4c 0 Logger::metaObject() const
FUNC 2a060 58 0 Logger::qt_metacast(char const*)
FUNC 2a0b8 be 0 Logger::qt_metacall(QMetaObject::Call, int, void**)
FUNC 2a176 3b 0 Logger::newMessage(QString const&)
FUNC 2a1b2 1a 0 QMetaType::QMetaType()
FUNC 2a1cc 32 0 QtPrivate::QMetaTypeForType<Logger>::getDtor()::{lambda(QtPrivate::QMetaTypeInterface const*, void*)#1}::operator()(QtPrivate::QMetaTypeInterface const*, void*) const
FUNC 2a1fe 2b 0 QtPrivate::QMetaTypeForType<Logger>::getDtor()::{lambda(QtPrivate::QMetaTypeInterface const*, void*)#1}::_FUN(QtPrivate::QMetaTypeInterface const*, void*)
FUNC 2a229 15 0 QtPrivate::MetaObjectForType<Logger, void>::metaObjectFunction(QtPrivate::QMetaTypeInterface const*)
FUNC 2a23e 8e 0 bool QtMocHelpers::indexOfMethod<void (Logger::*)(QString const&)>(void**, void (Logger::*)(QString const&), int)
FUNC 2a2cc 74 0 void QMetaObject::activate<void, QString>(QObject*, QMetaObject const*, int, void*, QString const&)
FUNC 2a340 1e 0 QString const* std::addressof<QString const>(QString const&)
FUNC 2a35e 12 0 QString const* std::__addressof<QString const>(QString const&)
FUNC 2a370 15d 0 LogViewer::LogViewer(QWidget*)
FUNC 2a4ce 61 0 LogViewer::~LogViewer()
FUNC 2a53a 2f 0 LogViewer::~LogViewer()
FUNC 2a574 32 0 LogViewer::onNewMessage(QString const&)
FUNC 2a5a6 2be 0 Ui_LogViewer::setupUi(QWidget*)
FUNC 2a864 13 0 Ui_LogViewer::retranslateUi(QWidget*)
FUNC 2a877 ca 0 QMetaObject::Connection QObject::connect<void (Logger::*)(QString const&), void (LogViewer::*)(QString const&)>(QtPrivate::FunctionPointer<void (Logger::*)(QString const&)>::Object const*, void (Logger::*)(QString const&), QtPrivate::ContextTypeForFunctor<void (LogViewer::*)(QString const&), void>::ContextType const*, void (LogViewer::*&&)(QString const&), Qt::ConnectionType)
FUNC 2a941 6d 0 std::enable_if<(sizeof (char))==(1), long long>::type QtPrivate::lengthHelperContainer<char, 15ul>(char const (&) [15ul])
FUNC 2a9ae 11 0 QtPrivate::ConnectionTypes<QtPrivate::List<QString const&>, true>::types()
FUNC 2a9bf 12 0 void (LogViewer::*&&std::forward<void (LogViewer::*)(QString const&)>(std::remove_reference<void (LogViewer::*)(QString const&)>::type&))(QString const&)
FUNC 2a9d1 41 0 QtPrivate::makeCallableObject<void (Logger::*)(const QString&), void (LogViewer::*)(const QString&)>
FUNC 2aa12 4c 0 QtPrivate::QCallableObject<void (LogViewer::*)(QString const&), QtPrivate::List<QString const&>, void>::QCallableObject(void (LogViewer::*&&)(QString const&))
FUNC 2aa5e 1f 0 QtPrivate::QCallableObject<void (LogViewer::*)(QString const&), QtPrivate::List<QString const&>, void>::~QCallableObject()
FUNC 2aa7d 100 0 QtPrivate::QCallableObject<void (LogViewer::*)(QString const&), QtPrivate::List<QString const&>, void>::impl(int, QtPrivate::QSlotObjectBase*, QObject*, void**, bool*)
FUNC 2ab7d 12 0 std::remove_reference<void (LogViewer::*&)(QString const&)>::type&& std::move<void (LogViewer::*&)(QString const&)>(void (LogViewer::*&)(QString const&))
FUNC 2ab90 12 0 QtPrivate::detail::StorageByValue<void (LogViewer::*)(QString const&), void>::object() &
FUNC 2aba2 49 0 void QtPrivate::FunctionPointer<void (LogViewer::*)(QString const&)>::call<QtPrivate::List<QString const&>, void>(void (LogViewer::*)(QString const&), LogViewer*, void**)
FUNC 2abec 97 0 QtPrivate::FunctorCall<std::integer_sequence<unsigned long, 0ul>, QtPrivate::List<QString const&>, void, void (LogViewer::*)(QString const&)>::call(void (LogViewer::*)(QString const&), LogViewer*, void**)::{lambda()#1}::operator()() const
FUNC 2ac83 88 0 QtPrivate::FunctorCall<std::integer_sequence<unsigned long, 0ul>, QtPrivate::List<QString const&>, void, void (LogViewer::*)(QString const&)>::call(void (LogViewer::*)(QString const&), LogViewer*, void**)
FUNC 2ad0c 41 0 QtPrivate::assertObjectType<LogViewer>(QObject*)::{lambda(QObject*)#3}::operator()(QObject*) const
FUNC 2ad4d 7e 0 void QtPrivate::assertObjectType<LogViewer>(QObject*)
FUNC 2adcb 2b 0 void QtPrivate::FunctorCallBase::call_internal<void, QtPrivate::FunctorCall<std::integer_sequence<unsigned long, 0ul>, QtPrivate::List<QString const&>, void, void (LogViewer::*)(QString const&)>::call(void (LogViewer::*)(QString const&), LogViewer*, void**)::{lambda()#1}>(void**, QtPrivate::FunctorCall<std::integer_sequence<unsigned long, 0ul>, QtPrivate::List<QString const&>, void, void (LogViewer::*)(QString const&)>::call(void (LogViewer::*)(QString const&), LogViewer*, void**)::{lambda()#1}&&)
FUNC 2adf6 12 0 QtPrivate::FunctorCall<std::integer_sequence<unsigned long, 0ul>, QtPrivate::List<QString const&>, void, void (LogViewer::*)(QString const&)>::call(void (LogViewer::*)(QString const&), LogViewer*, void**)::{lambda()#1}&& std::forward<QtPrivate::FunctorCall<std::integer_sequence<unsigned long, 0ul>, QtPrivate::List<QString const&>, void, void (LogViewer::*)(QString const&)>::call(void (LogViewer::*)(QString const&), LogViewer*, void**)::{lambda()#1}>(std::remove_reference<QtPrivate::FunctorCall<std::integer_sequence<unsigned long, 0ul>, QtPrivate::List<QString const&>, void, void (LogViewer::*)(QString const&)>::call(void (LogViewer::*)(QString const&), LogViewer*, void**)::{lambda()#1}>::type&)
FUNC 2ae08 4c 0 LogViewer::qt_static_metacall(QObject*, QMetaObject::Call, int, void**)
FUNC 2ae54 4c 0 LogViewer::metaObject() const
FUNC 2aea0 58 0 LogViewer::qt_metacast(char const*)
FUNC 2aef8 be 0 LogViewer::qt_metacall(QMetaObject::Call, int, void**)
FUNC 2afb6 77 0 QtPrivate::QMetaTypeForType<LogViewer>::getDefaultCtr()::{lambda(QtPrivate::QMetaTypeInterface const*, void*)#1}::operator()(QtPrivate::QMetaTypeInterface const*, void*) const
FUNC 2b02d 2b 0 QtPrivate::QMetaTypeForType<LogViewer>::getDefaultCtr()::{lambda(QtPrivate::QMetaTypeInterface const*, void*)#1}::_FUN(QtPrivate::QMetaTypeInterface const*, void*)
FUNC 2b058 32 0 QtPrivate::QMetaTypeForType<LogViewer>::getDtor()::{lambda(QtPrivate::QMetaTypeInterface const*, void*)#1}::operator()(QtPrivate::QMetaTypeInterface const*, void*) const
FUNC 2b08a 2b 0 QtPrivate::QMetaTypeForType<LogViewer>::getDtor()::{lambda(QtPrivate::QMetaTypeInterface const*, void*)#1}::_FUN(QtPrivate::QMetaTypeInterface const*, void*)
FUNC 2b0b5 15 0 QtPrivate::MetaObjectForType<LogViewer, void>::metaObjectFunction(QtPrivate::QMetaTypeInterface const*)
FUNC 2e090 b 0 __gthread_active_p
FUNC 2e09b 2f 0 __gthread_mutex_lock
FUNC 2e0ca 2f 0 __gthread_mutex_unlock
FUNC 2e0f9 23 0 spdlog::level::to_string_view(spdlog::level::level_enum)
FUNC 2e11c 25 0 spdlog::level::to_short_c_str(spdlog::level::level_enum)
FUNC 2e141 e2 0 spdlog::level::from_str(std::__cxx11::basic_string<char, std::char_traits<char>, std::allocator<char> > const&)
FUNC 2e224 55 0 spdlog::spdlog_ex::spdlog_ex(std::__cxx11::basic_string<char, std::char_traits<char>, std::allocator<char> >)
FUNC 2e27a 179 0 spdlog::spdlog_ex::spdlog_ex(std::__cxx11::basic_string<char, std::char_traits<char>, std::allocator<char> > const&, int)
FUNC 2e3f4 22 0 spdlog::spdlog_ex::what() const
FUNC 2e416 6b 0 spdlog::throw_spdlog_ex(std::__cxx11::basic_string<char, std::char_traits<char>, std::allocator<char> > const&, int)
FUNC 2e481 96 0 spdlog::throw_spdlog_ex(std::__cxx11::basic_string<char, std::char_traits<char>, std::allocator<char> >)
FUNC 2e518 118 0 spdlog::details::backtracer::backtracer(spdlog::details::backtracer const&)
FUNC 2e630 d1 0 spdlog::details::backtracer::backtracer(spdlog::details::backtracer&&)
FUNC 2e702 ab 0 spdlog::details::backtracer::operator=(spdlog::details::backtracer)
FUNC 2e7ae e1 0 spdlog::details::backtracer::enable(unsigned long)
FUNC 2e890 6e 0 spdlog::details::backtracer::disable()
FUNC 2e8fe 27 0 spdlog::details::backtracer::enabled() const
FUNC 2e926 eb 0 spdlog::details::backtracer::push_back(spdlog::details::log_msg const&)
FUNC 2ea12 6e 0 spdlog::details::backtracer::empty() const
FUNC 2ea80 e1 0 spdlog::details::backtracer::foreach_pop(std::function<void (spdlog::details::log_msg const&)>)
FUNC 2eb62 a1 0 spdlog::details::log_msg::log_msg(std::chrono::time_point<std::chrono::_V2::system_clock, std::chrono::duration<long, std::ratio<1l, 1000000000l> > >, spdlog::source_loc, fmt::v11::basic_string_view<char>, spdlog::level::level_enum, fmt::v11::basic_string_view<char>)
FUNC 2ec04 86 0 spdlog::details::log_msg::log_msg(spdlog::source_loc, fmt::v11::basic_string_view<char>, spdlog::level::level_enum, fmt::v11::basic_string_view<char>)
FUNC 2ec8a cc 0 spdlog::details::log_msg::log_msg(fmt::v11::basic_string_view<char>, spdlog::level::level_enum, fmt::v11::basic_string_view<char>)
FUNC 2ed56 16f 0 spdlog::details::log_msg_buffer::log_msg_buffer(spdlog::details::log_msg const&)
FUNC 2eec6 16f 0 spdlog::details::log_msg_buffer::log_msg_buffer(spdlog::details::log_msg_buffer const&)
FUNC 2f036 b1 0 spdlog::details::log_msg_buffer::log_msg_buffer(spdlog::details::log_msg_buffer&&)
FUNC 2f0e8 f2 0 spdlog::details::log_msg_buffer::operator=(spdlog::details::log_msg_buffer const&)
FUNC 2f1da b7 0 spdlog::details::log_msg_buffer::operator=(spdlog::details::log_msg_buffer&&)
FUNC 2f292 d7 0 spdlog::details::log_msg_buffer::update_string_views()
FUNC 2f369 f 0 spdlog::details::os::now()
FUNC 2f378 2e 0 spdlog::details::os::localtime(long const&)
FUNC 2f3a6 5b 0 spdlog::details::os::localtime()
FUNC 2f401 2e 0 spdlog::details::os::gmtime(long const&)
FUNC 2f42f 5b 0 spdlog::details::os::gmtime()
FUNC 2f48a 5c 0 spdlog::details::os::fopen_s(_IO_FILE**, std::__cxx11::basic_string<char, std::char_traits<char>, std::allocator<char> > const&, std::__cxx11::basic_string<char, std::char_traits<char>, std::allocator<char> > const&)
FUNC 2f4e6 26 0 spdlog::details::os::remove(std::__cxx11::basic_string<char, std::char_traits<char>, std::allocator<char> > const&)
FUNC 2f50c 35 0 spdlog::details::os::remove_if_exists(std::__cxx11::basic_string<char, std::char_traits<char>, std::allocator<char> > const&)
FUNC 2f541 41 0 spdlog::details::os::rename(std::__cxx11::basic_string<char, std::char_traits<char>, std::allocator<char> > const&, std::__cxx11::basic_string<char, std::char_traits<char>, std::allocator<char> > const&)
FUNC 2f582 64 0 spdlog::details::os::path_exists(std::__cxx11::basic_string<char, std::char_traits<char>, std::allocator<char> > const&)
FUNC 2f5e6 1d7 0 spdlog::details::os::filesize(_IO_FILE*)
FUNC 2f7bd 45 0 spdlog::details::os::utc_minutes_offset(tm const&)
FUNC 2f802 19 0 spdlog::details::os::_thread_id()
FUNC 2f81b 49 0 spdlog::details::os::thread_id()
FUNC 2f864 54 0 spdlog::details::os::sleep_for_millis(unsigned int)
FUNC 2f8b8 2d 0 spdlog::details::os::filename_to_str(std::__cxx11::basic_string<char, std::char_traits<char>, std::allocator<char> > const&)
FUNC 2f8e5 16 0 spdlog::details::os::pid()
FUNC 2f92e b6 0 operator()
FUNC 2f9e4 81 0 spdlog::details::os::is_color_terminal()
FUNC 2fa65 2a 0 spdlog::details::os::in_terminal(_IO_FILE*)
FUNC 2fa8f 30 0 spdlog::details::os::mkdir_
FUNC 2fabf 168 0 spdlog::details::os::create_dir(std::__cxx11::basic_string<char, std::char_traits<char>, std::allocator<char> > const&)
FUNC 2fc27 8f 0 spdlog::details::os::dir_name(std::__cxx11::basic_string<char, std::char_traits<char>, std::allocator<char> > const&)
FUNC 2fcb6 e2 0 spdlog::details::os::getenv[abi:cxx11](char const*)
FUNC 2fd98 2a 0 spdlog::details::os::fsync(_IO_FILE*)
FUNC 2fdc2 3a 0 spdlog::details::os::fwrite_bytes(void const*, unsigned long, _IO_FILE*)
FUNC 2fdfc 3eb 0 spdlog::details::registry::registry()
FUNC 301e8 8f 0 spdlog::details::registry::~registry()
FUNC 30278 da 0 spdlog::details::registry::register_logger(std::shared_ptr<spdlog::logger>)
FUNC 30352 da 0 spdlog::details::registry::register_or_replace(std::shared_ptr<spdlog::logger>)
FUNC 3042c 2a0 0 spdlog::details::registry::initialize_logger(std::shared_ptr<spdlog::logger>)
FUNC 306cc 112 0 spdlog::details::registry::get(std::__cxx11::basic_string<char, std::char_traits<char>, std::allocator<char> > const&)
FUNC 307de 77 0 spdlog::details::registry::default_logger()
FUNC 30856 24 0 spdlog::details::registry::get_default_raw()
FUNC 3087a 103 0 spdlog::details::registry::set_default_logger(std::shared_ptr<spdlog::logger>)
FUNC 3097e 80 0 spdlog::details::registry::set_tp(std::shared_ptr<spdlog::details::thread_pool>)
FUNC 309fe 7b 0 spdlog::details::registry::get_tp()
FUNC 30a7a 185 0 spdlog::details::registry::set_formatter(std::unique_ptr<spdlog::formatter, std::default_delete<spdlog::formatter> >)
FUNC 30c00 123 0 spdlog::details::registry::enable_backtrace(unsigned long)
FUNC 30d24 115 0 spdlog::details::registry::disable_backtrace()
FUNC 30e3a e5 0 spdlog::details::registry::set_level(spdlog::level::level_enum)
FUNC 30f20 e5 0 spdlog::details::registry::flush_on(spdlog::level::level_enum)
FUNC 31006 157 0 spdlog::details::registry::set_error_handler(std::function<void (std::__cxx11::basic_string<char, std::char_traits<char>, std::allocator<char> > const&)>)
FUNC 3115e 134 0 spdlog::details::registry::apply_all(std::function<void (std::shared_ptr<spdlog::logger>)> const&)
FUNC 31292 106 0 spdlog::details::registry::flush_all()
FUNC 31398 115 0 spdlog::details::registry::drop(std::__cxx11::basic_string<char, std::char_traits<char>, std::allocator<char> > const&)
FUNC 314ae 76 0 spdlog::details::registry::drop_all()
FUNC 31524 b1 0 spdlog::details::registry::shutdown()
FUNC 315d6 16 0 spdlog::details::registry::tp_mutex()
FUNC 315ec 67 0 spdlog::details::registry::set_automatic_registration(bool)
FUNC 31654 1f0 0 spdlog::details::registry::set_levels(std::unordered_map<std::__cxx11::basic_string<char, std::char_traits<char>, std::allocator<char> >, spdlog::level::level_enum, std::hash<std::__cxx11::basic_string<char, std::char_traits<char>, std::allocator<char> > >, std::equal_to<std::__cxx11::basic_string<char, std::char_traits<char>, std::allocator<char> > >, std::allocator<std::pair<std::__cxx11::basic_string<char, std::char_traits<char>, std::allocator<char> > const, spdlog::level::level_enum> > >, spdlog::level::level_enum*)
FUNC 31844 ae 0 spdlog::details::registry::instance()
FUNC 318f2 126 0 spdlog::details::registry::apply_logger_env_levels(std::shared_ptr<spdlog::logger>)
FUNC 31a18 124 0 spdlog::details::registry::throw_if_exists_(std::__cxx11::basic_string<char, std::char_traits<char>, std::allocator<char> > const&)
FUNC 31b3c 78 0 spdlog::details::registry::register_logger_(std::shared_ptr<spdlog::logger>)
FUNC 31bb4 62 0 spdlog::details::registry::register_or_replace_(std::shared_ptr<spdlog::logger>)
FUNC 31c16 1d9 0 spdlog::logger::logger(spdlog::logger const&)
FUNC 31df0 1a4 0 spdlog::logger::logger(spdlog::logger&&)
FUNC 31f94 2d 0 spdlog::logger::operator=(spdlog::logger)
FUNC 31fc2 2b9 0 spdlog::logger::swap(spdlog::logger&)
FUNC 3227b 2a 0 spdlog::swap(spdlog::logger&, spdlog::logger&)
FUNC 322a6 a2 0 spdlog::logger::set_level(spdlog::level::level_enum)
FUNC 32348 77 0 spdlog::logger::level() const
FUNC 323c0 16 0 spdlog::logger::name[abi:cxx11]() const
FUNC 323d6 227 0 spdlog::logger::set_formatter(std::unique_ptr<spdlog::formatter, std::default_delete<spdlog::formatter> >)
FUNC 325fe ec 0 spdlog::logger::set_pattern(std::__cxx11::basic_string<char, std::char_traits<char>, std::allocator<char> >, spdlog::pattern_time_type)
FUNC 326ea 2e 0 spdlog::logger::enable_backtrace(unsigned long)
FUNC 32718 23 0 spdlog::logger::disable_backtrace()
FUNC 3273c 1f 0 spdlog::logger::dump_backtrace()
FUNC 3275c 2a 0 spdlog::logger::flush()
FUNC 32786 a2 0 spdlog::logger::flush_on(spdlog::level::level_enum)
FUNC 32828 77 0 spdlog::logger::flush_level() const
FUNC 328a0 16 0 spdlog::logger::sinks() const
FUNC 328b6 16 0 spdlog::logger::sinks()
FUNC 328cc 39 0 spdlog::logger::set_error_handler(std::function<void (std::__cxx11::basic_string<char, std::char_traits<char>, std::allocator<char> > const&)>)
FUNC 32906 84 0 spdlog::logger::clone(std::__cxx11::basic_string<char, std::char_traits<char>, std::allocator<char> >)
FUNC 3298a 60 0 spdlog::logger::log_it_(spdlog::details::log_msg const&, bool, bool)
FUNC 32a08 45 0 operator()
FUNC 32a4e 4e4 0 spdlog::logger::sink_it_(spdlog::details::log_msg const&)
FUNC 32f50 45 0 operator()
FUNC 32f96 4e9 0 spdlog::logger::flush_()
FUNC 334b8 318 0 spdlog::logger::dump_backtrace_()
FUNC 337d0 a2 0 spdlog::logger::should_flush_(spdlog::details::log_msg const&)
FUNC 33872 226 0 spdlog::logger::err_handler_(std::__cxx11::basic_string<char, std::char_traits<char>, std::allocator<char> > const&)
FUNC 33a98 2a 0 spdlog::details::ampm
FUNC 33ac2 2d 0 spdlog::details::to12h
FUNC 33af0 1b1 0 spdlog::pattern_formatter::pattern_formatter(std::__cxx11::basic_string<char, std::char_traits<char>, std::allocator<char> >, spdlog::pattern_time_type, std::__cxx11::basic_string<char, std::char_traits<char>, std::allocator<char> >, std::unordered_map<char, std::unique_ptr<spdlog::custom_flag_formatter, std::default_delete<spdlog::custom_flag_formatter> >, std::hash<char>, std::equal_to<char>, std::allocator<std::pair<char const, std::unique_ptr<spdlog::custom_flag_formatter, std::default_delete<spdlog::custom_flag_formatter> > > > >)
FUNC 33ca2 255 0 spdlog::pattern_formatter::pattern_formatter(spdlog::pattern_time_type, std::__cxx11::basic_string<char, std::char_traits<char>, std::allocator<char> >)
FUNC 33ef8 1f9 0 spdlog::pattern_formatter::clone() const
FUNC 340f2 1d5 0 spdlog::pattern_formatter::format(spdlog::details::log_msg const&, fmt::v11::basic_memory_buffer<char, 250ul, fmt::v11::detail::allocator<char> >&)
FUNC 342c8 58 0 spdlog::pattern_formatter::set_pattern(std::__cxx11::basic_string<char, std::char_traits<char>, std::allocator<char> >)
FUNC 34320 1f 0 spdlog::pattern_formatter::need_localtime(bool)
FUNC 34340 9d 0 spdlog::pattern_formatter::get_time_(spdlog::details::log_msg const&)
FUNC 343de 286 0 spdlog::pattern_formatter::handle_padspec_(__gnu_cxx::__normal_iterator<char const*, std::__cxx11::basic_string<char, std::char_traits<char>, std::allocator<char> > >&, __gnu_cxx::__normal_iterator<char const*, std::__cxx11::basic_string<char, std::char_traits<char>, std::allocator<char> > >)
FUNC 34664 2e8 0 spdlog::pattern_formatter::compile_pattern_(std::__cxx11::basic_string<char, std::char_traits<char>, std::allocator<char> > const&)
FUNC 3494c 80 0 spdlog::sinks::sink::should_log(spdlog::level::level_enum) const
FUNC 349cc a2 0 spdlog::sinks::sink::set_level(spdlog::level::level_enum)
FUNC 34a6e 77 0 spdlog::sinks::sink::level() const
FUNC 34ae5 b0 0 spdlog::initialize_logger(std::shared_ptr<spdlog::logger>)
FUNC 34b95 58 0 spdlog::get(std::__cxx11::basic_string<char, std::char_traits<char>, std::allocator<char> > const&)
FUNC 34bed b0 0 spdlog::set_formatter(std::unique_ptr<spdlog::formatter, std::default_delete<spdlog::formatter> >)
FUNC 34c9d 20a 0 spdlog::set_pattern(std::__cxx11::basic_string<char, std::char_traits<char>, std::allocator<char> >, spdlog::pattern_time_type)
FUNC 34ea7 2a 0 spdlog::enable_backtrace(unsigned long)
FUNC 34ed1 18 0 spdlog::disable_backtrace()
FUNC 34ee9 18 0 spdlog::dump_backtrace()
FUNC 34f01 17 0 spdlog::get_level()
FUNC 34f18 26 0 spdlog::should_log(spdlog::level::level_enum)
FUNC 34f3e 27 0 spdlog::set_level(spdlog::level::level_enum)
FUNC 34f65 27 0 spdlog::flush_on(spdlog::level::level_enum)
FUNC 34f8c a5 0 spdlog::set_error_handler(void (*)(std::__cxx11::basic_string<char, std::char_traits<char>, std::allocator<char> > const&))
FUNC 35031 b0 0 spdlog::register_logger(std::shared_ptr<spdlog::logger>)
FUNC 350e1 b0 0 spdlog::register_or_replace(std::shared_ptr<spdlog::logger>)
FUNC 35191 2a 0 spdlog::apply_all(std::function<void (std::shared_ptr<spdlog::logger>)> const&)
FUNC 351bb 2a 0 spdlog::drop(std::__cxx11::basic_string<char, std::char_traits<char>, std::allocator<char> > const&)
FUNC 351e5 18 0 spdlog::drop_all()
FUNC 351fd 18 0 spdlog::shutdown()
FUNC 35215 2a 0 spdlog::set_automatic_registration(bool)
FUNC 3523f 50 0 spdlog::default_logger()
FUNC 3528f 17 0 spdlog::default_logger_raw()
FUNC 352a6 b0 0 spdlog::set_default_logger(std::shared_ptr<spdlog::logger>)
FUNC 35356 b0 0 spdlog::apply_logger_env_levels(std::shared_ptr<spdlog::logger>)
FUNC 35406 30 0 std::any_of<char const* const*, spdlog::details::os::is_color_terminal()::<lambda()>::<lambda(char const*)> >
FUNC 35436 87 0 std::function<void(const spdlog::details::log_msg&)>::function<spdlog::logger::dump_backtrace_()::<lambda(const spdlog::details::log_msg&)> >
FUNC 354bd 34 0 std::none_of<char const* const*, spdlog::details::os::is_color_terminal()::<lambda()>::<lambda(char const*)> >
FUNC 354f1 f 0 std::_Function_base::_Base_manager<spdlog::logger::dump_backtrace_()::<lambda(const spdlog::details::log_msg&)> >::_M_not_empty_function<spdlog::logger::dump_backtrace_()::<lambda(const spdlog::details::log_msg&)> >
FUNC 35500 e 0 std::forward<spdlog::logger::dump_backtrace_()::<lambda(const spdlog::details::log_msg&)> >
FUNC 3550e 31 0 std::_Function_base::_Base_manager<spdlog::logger::dump_backtrace_()::<lambda(const spdlog::details::log_msg&)> >::_M_init_functor<spdlog::logger::dump_backtrace_()::<lambda(const spdlog::details::log_msg&)> >
FUNC 3553f 42 0 std::_Function_handler<void(const spdlog::details::log_msg&), spdlog::logger::dump_backtrace_()::<lambda(const spdlog::details::log_msg&)> >::_M_invoke
FUNC 35581 7f 0 std::_Function_handler<void(const spdlog::details::log_msg&), spdlog::logger::dump_backtrace_()::<lambda(const spdlog::details::log_msg&)> >::_M_manager
FUNC 35600 38 0 std::find_if<char const* const*, spdlog::details::os::is_color_terminal()::<lambda()>::<lambda(char const*)> >
FUNC 35638 46 0 std::_Function_base::_Base_manager<spdlog::logger::dump_backtrace_()::<lambda(const spdlog::details::log_msg&)> >::_M_create<spdlog::logger::dump_backtrace_()::<lambda(const spdlog::details::log_msg&)> >
FUNC 3567e 2a 0 std::_Function_base::_Base_manager<spdlog::logger::dump_backtrace_()::<lambda(const spdlog::details::log_msg&)> >::_M_get_pointer
FUNC 356a8 3e 0 std::__invoke_r<void, spdlog::logger::dump_backtrace_()::<lambda(const spdlog::details::log_msg&)>&, const spdlog::details::log_msg&>
FUNC 356e6 1a 0 std::_Any_data::_M_access<spdlog::logger::dump_backtrace_()::<lambda(const spdlog::details::log_msg&)>*>
FUNC 35700 a6 0 std::_Function_base::_Base_manager<spdlog::logger::dump_backtrace_()::<lambda(const spdlog::details::log_msg&)> >::_M_manager
FUNC 357a6 53 0 __gnu_cxx::__ops::__pred_iter<spdlog::details::os::is_color_terminal()::<lambda()>::<lambda(char const*)> >
FUNC 357f9 2e 0 std::__find_if<char const* const*, __gnu_cxx::__ops::_Iter_pred<spdlog::details::os::is_color_terminal()::<lambda()>::<lambda(char const*)> > >
FUNC 35828 1a 0 std::_Any_data::_M_access<spdlog::logger::dump_backtrace_()::<lambda(const spdlog::details::log_msg&)> >
FUNC 35842 e 0 std::__addressof<const spdlog::logger::dump_backtrace_()::<lambda(const spdlog::details::log_msg&)> >
FUNC 35850 e 0 std::forward<spdlog::logger::dump_backtrace_()::<lambda(const spdlog::details::log_msg&)>&>
FUNC 3585e 3e 0 std::__invoke_impl<void, spdlog::logger::dump_backtrace_()::<lambda(const spdlog::details::log_msg&)>&, const spdlog::details::log_msg&>
FUNC 3589c 31 0 std::_Function_base::_Base_manager<spdlog::logger::dump_backtrace_()::<lambda(const spdlog::details::log_msg&)> >::_M_init_functor<const spdlog::logger::dump_backtrace_()::<lambda(const spdlog::details::log_msg&)>&>
FUNC 358cd 1b 0 std::_Function_base::_Base_manager<spdlog::logger::dump_backtrace_()::<lambda(const spdlog::details::log_msg&)> >::_M_destroy
FUNC 358e8 e 0 std::move<spdlog::details::os::is_color_terminal()::<lambda()>::<lambda(char const*)>&>
FUNC 358f6 29 0 __gnu_cxx::__ops::_Iter_pred<spdlog::details::os::is_color_terminal()::<lambda()>::<lambda(char const*)> >::_Iter_pred
FUNC 3591f 167 0 std::__find_if<char const* const*, __gnu_cxx::__ops::_Iter_pred<spdlog::details::os::is_color_terminal()::<lambda()>::<lambda(char const*)> > >
FUNC 35a86 e 0 std::forward<const spdlog::logger::dump_backtrace_()::<lambda(const spdlog::details::log_msg&)>&>
FUNC 35a94 46 0 std::_Function_base::_Base_manager<spdlog::logger::dump_backtrace_()::<lambda(const spdlog::details::log_msg&)> >::_M_create<const spdlog::logger::dump_backtrace_()::<lambda(const spdlog::details::log_msg&)>&>
FUNC 35ada 1a 0 std::_Any_data::_M_access<spdlog::logger::dump_backtrace_()::<lambda(const spdlog::details::log_msg&)> >
FUNC 35af4 28 0 __gnu_cxx::__ops::_Iter_pred<spdlog::details::os::is_color_terminal()::<lambda()>::<lambda(char const*)> >::operator()<char const* const*>
FUNC 35b1c 29 0 std::atomic<bool>::operator=(bool)
FUNC 35b46 a8 0 std::atomic<bool>::store(bool, std::memory_order)
FUNC 35bee 7b 0 std::atomic<bool>::load(std::memory_order) const
FUNC 35c6a f 0 spdlog::details::null_mutex::lock() const
FUNC 35c7a f 0 spdlog::details::null_mutex::unlock() const
FUNC 35c8a 18 0 std::hash<char>::operator()(char) const
FUNC 35ca2 31 0 std::_Hash_impl::hash(void const*, unsigned long, unsigned long)
FUNC 35cd4 1a 0 std::__detail::_Hash_node_base::_Hash_node_base()
FUNC 35cee 1e 0 std::__detail::_Hash_node_base::_Hash_node_base(std::__detail::_Hash_node_base*)
FUNC 35d0c 26 0 std::__detail::_Mod_range_hashing::operator()(unsigned long, unsigned long) const
FUNC 35d32 2d 0 std::__detail::_Prime_rehash_policy::_Prime_rehash_policy(float)
FUNC 35d60 16 0 std::__detail::_Prime_rehash_policy::_M_state() const
FUNC 35d76 1b 0 std::__detail::_Prime_rehash_policy::_M_reset()
FUNC 35d92 1f 0 std::__detail::_Prime_rehash_policy::_M_reset(unsigned long)
FUNC 35db1 1a 0 __gthread_recursive_mutex_lock
FUNC 35dcb 1a 0 __gthread_recursive_mutex_unlock
FUNC 35de5 27 0 std::char_traits<char>::lt(char const&, char const&)
FUNC 35e0c c4 0 std::char_traits<char>::compare(char const*, char const*, unsigned long)
FUNC 35ed0 8 0 fmt::v11::basic_string_view<char>::begin() const
FUNC 35ed8 20 0 fmt::v11::detail::digits2(unsigned long)
FUNC 35ef8 5c 0 fmt::v11::detail::do_count_digits(unsigned long)
FUNC 35f54 4e 0 fmt::v11::detail::count_digits(unsigned long)
FUNC 35fa2 7b 0 fmt::v11::detail::count_digits(unsigned int)
FUNC 3601e c 0 fmt::v11::basic_string_view<char>::end() const
FUNC 3602a 2f 0 fmt::v11::format_int::format_int(int)
FUNC 3605a 32 0 fmt::v11::format_int::format_int(long)
FUNC 3608c 2f 0 fmt::v11::format_int::format_int(unsigned int)
FUNC 360bc 32 0 fmt::v11::format_int::format_int(unsigned long)
FUNC 360ee 2d 0 fmt::v11::format_int::size() const
FUNC 3611c 16 0 fmt::v11::format_int::data() const
FUNC 36132 1a 0 spdlog::source_loc::empty() const
FUNC 3614c c 0 fmt::v11::basic_string_view<char>::basic_string_view(char const*, unsigned long)
FUNC 36158 7e 0 fmt::v11::basic_memory_buffer<char, 250ul, fmt::v11::detail::allocator<char> >::basic_memory_buffer(fmt::v11::detail::allocator<char> const&)
FUNC 361d6 3d 0 spdlog::spdlog_ex::~spdlog_ex()
FUNC 36214 2f 0 spdlog::spdlog_ex::~spdlog_ex()
FUNC 36244 32 0 std::mutex::lock()
FUNC 36276 1f 0 std::mutex::unlock()
FUNC 36296 32 0 std::recursive_mutex::lock()
FUNC 362c8 1f 0 std::recursive_mutex::unlock()
FUNC 362e8 73 0 spdlog::details::circular_q<spdlog::details::log_msg_buffer>::operator=(spdlog::details::circular_q<spdlog::details::log_msg_buffer> const&)
FUNC 3635c 31 0 spdlog::source_loc::source_loc()
FUNC 3638e 17b 0 spdlog::logger::logger(std::__cxx11::basic_string<char, std::char_traits<char>, std::allocator<char> >, std::shared_ptr<spdlog::sinks::sink>)
FUNC 3650a de 0 spdlog::logger::logger(std::__cxx11::basic_string<char, std::char_traits<char>, std::allocator<char> >, std::initializer_list<std::shared_ptr<spdlog::sinks::sink> >)
FUNC 365e8 43 0 spdlog::details::padding_info::padding_info(unsigned long, spdlog::details::padding_info::pad_side, bool)
FUNC 3662c 16 0 spdlog::details::padding_info::enabled() const
FUNC 36642 45 0 spdlog::details::flag_formatter::flag_formatter(spdlog::details::padding_info)
FUNC 36688 2a 0 spdlog::custom_flag_formatter::set_padding_info(spdlog::details::padding_info const&)
FUNC 366b2 1f 0 std::__detail::_Hash_code_base<char, std::pair<char const, std::unique_ptr<spdlog::custom_flag_formatter, std::default_delete<spdlog::custom_flag_formatter> > >, std::__detail::_Select1st, std::hash<char>, std::__detail::_Mod_range_hashing, std::__detail::_Default_ranged_hash, false>::_Hash_code_base()
FUNC 366d2 2b 0 std::__detail::_Hashtable_base<char, std::pair<char const, std::unique_ptr<spdlog::custom_flag_formatter, std::default_delete<spdlog::custom_flag_formatter> > >, std::__detail::_Select1st, std::equal_to<char>, std::hash<char>, std::__detail::_Mod_range_hashing, std::__detail::_Default_ranged_hash, std::__detail::_Hashtable_traits<false, false, true> >::_Hashtable_base()
FUNC 366fe 28 0 std::__detail::_Hashtable_ebo_helper<0, std::allocator<std::__detail::_Hash_node<std::pair<char const, std::unique_ptr<spdlog::custom_flag_formatter, std::default_delete<spdlog::custom_flag_formatter> > >, false> >, true>::~_Hashtable_ebo_helper()
FUNC 36726 1f 0 std::__detail::_Hashtable_alloc<std::allocator<std::__detail::_Hash_node<std::pair<char const, std::unique_ptr<spdlog::custom_flag_formatter, std::default_delete<spdlog::custom_flag_formatter> > >, false> > >::_Hashtable_alloc()
FUNC 36746 1f 0 std::__detail::_Hashtable_alloc<std::allocator<std::__detail::_Hash_node<std::pair<char const, std::unique_ptr<spdlog::custom_flag_formatter, std::default_delete<spdlog::custom_flag_formatter> > >, false> > >::~_Hashtable_alloc()
FUNC 36766 88 0 std::_Hashtable<char, std::pair<char const, std::unique_ptr<spdlog::custom_flag_formatter, std::default_delete<spdlog::custom_flag_formatter> > >, std::allocator<std::pair<char const, std::unique_ptr<spdlog::custom_flag_formatter, std::default_delete<spdlog::custom_flag_formatter> > > >, std::__detail::_Select1st, std::equal_to<char>, std::hash<char>, std::__detail::_Mod_range_hashing, std::__detail::_Default_ranged_hash, std::__detail::_Prime_rehash_policy, std::__detail::_Hashtable_traits<false, false, true> >::_Hashtable()
FUNC 367ee 1f 0 std::unordered_map<char, std::unique_ptr<spdlog::custom_flag_formatter, std::default_delete<spdlog::custom_flag_formatter> >, std::hash<char>, std::equal_to<char>, std::allocator<std::pair<char const, std::unique_ptr<spdlog::custom_flag_formatter, std::default_delete<spdlog::custom_flag_formatter> > > > >::unordered_map()
FUNC 3680e 1f 0 std::unordered_map<char, std::unique_ptr<spdlog::custom_flag_formatter, std::default_delete<spdlog::custom_flag_formatter> >, std::hash<char>, std::equal_to<char>, std::allocator<std::pair<char const, std::unique_ptr<spdlog::custom_flag_formatter, std::default_delete<spdlog::custom_flag_formatter> > > > >::~unordered_map()
FUNC 3682e 2e 0 std::__recursive_mutex_base::__recursive_mutex_base()
FUNC 3685c 1f 0 std::recursive_mutex::recursive_mutex()
FUNC 3687c 1f 0 std::__detail::_Hash_code_base<std::__cxx11::basic_string<char, std::char_traits<char>, std::allocator<char> >, std::pair<std::__cxx11::basic_string<char, std::char_traits<char>, std::allocator<char> > const, std::shared_ptr<spdlog::logger> >, std::__detail::_Select1st, std::hash<std::__cxx11::basic_string<char, std::char_traits<char>, std::allocator<char> > >, std::__detail::_Mod_range_hashing, std::__detail::_Default_ranged_hash, true>::_Hash_code_base()
FUNC 3689c 2b 0 std::__detail::_Hashtable_base<std::__cxx11::basic_string<char, std::char_traits<char>, std::allocator<char> >, std::pair<std::__cxx11::basic_string<char, std::char_traits<char>, std::allocator<char> > const, std::shared_ptr<spdlog::logger> >, std::__detail::_Select1st, std::equal_to<std::__cxx11::basic_string<char, std::char_traits<char>, std::allocator<char> > >, std::hash<std::__cxx11::basic_string<char, std::char_traits<char>, std::allocator<char> > >, std::__detail::_Mod_range_hashing, std::__detail::_Default_ranged_hash, std::__detail::_Hashtable_traits<true, false, true> >::_Hashtable_base()
FUNC 368c8 28 0 std::__detail::_Hashtable_ebo_helper<0, std::allocator<std::__detail::_Hash_node<std::pair<std::__cxx11::basic_string<char, std::char_traits<char>, std::allocator<char> > const, std::shared_ptr<spdlog::logger> >, true> >, true>::~_Hashtable_ebo_helper()
FUNC 368f0 1f 0 std::__detail::_Hashtable_alloc<std::allocator<std::__detail::_Hash_node<std::pair<std::__cxx11::basic_string<char, std::char_traits<char>, std::allocator<char> > const, std::shared_ptr<spdlog::logger> >, true> > >::_Hashtable_alloc()
FUNC 36910 1f 0 std::__detail::_Hashtable_alloc<std::allocator<std::__detail::_Hash_node<std::pair<std::__cxx11::basic_string<char, std::char_traits<char>, std::allocator<char> > const, std::shared_ptr<spdlog::logger> >, true> > >::~_Hashtable_alloc()
FUNC 36930 88 0 std::_Hashtable<std::__cxx11::basic_string<char, std::char_traits<char>, std::allocator<char> >, std::pair<std::__cxx11::basic_string<char, std::char_traits<char>, std::allocator<char> > const, std::shared_ptr<spdlog::logger> >, std::allocator<std::pair<std::__cxx11::basic_string<char, std::char_traits<char>, std::allocator<char> > const, std::shared_ptr<spdlog::logger> > >, std::__detail::_Select1st, std::equal_to<std::__cxx11::basic_string<char, std::char_traits<char>, std::allocator<char> > >, std::hash<std::__cxx11::basic_string<char, std::char_traits<char>, std::allocator<char> > >, std::__detail::_Mod_range_hashing, std::__detail::_Default_ranged_hash, std::__detail::_Prime_rehash_policy, std::__detail::_Hashtable_traits<true, false, true> >::_Hashtable()
FUNC 369b8 1f 0 std::unordered_map<std::__cxx11::basic_string<char, std::char_traits<char>, std::allocator<char> >, std::shared_ptr<spdlog::logger>, std::hash<std::__cxx11::basic_string<char, std::char_traits<char>, std::allocator<char> > >, std::equal_to<std::__cxx11::basic_string<char, std::char_traits<char>, std::allocator<char> > >, std::allocator<std::pair<std::__cxx11::basic_string<char, std::char_traits<char>, std::allocator<char> > const, std::shared_ptr<spdlog::logger> > > >::unordered_map()
FUNC 369d8 1f 0 std::unordered_map<std::__cxx11::basic_string<char, std::char_traits<char>, std::allocator<char> >, std::shared_ptr<spdlog::logger>, std::hash<std::__cxx11::basic_string<char, std::char_traits<char>, std::allocator<char> > >, std::equal_to<std::__cxx11::basic_string<char, std::char_traits<char>, std::allocator<char> > >, std::allocator<std::pair<std::__cxx11::basic_string<char, std::char_traits<char>, std::allocator<char> > const, std::shared_ptr<spdlog::logger> > > >::~unordered_map()
FUNC 369f8 1f 0 std::__detail::_Hash_code_base<std::__cxx11::basic_string<char, std::char_traits<char>, std::allocator<char> >, std::pair<std::__cxx11::basic_string<char, std::char_traits<char>, std::allocator<char> > const, spdlog::level::level_enum>, std::__detail::_Select1st, std::hash<std::__cxx11::basic_string<char, std::char_traits<char>, std::allocator<char> > >, std::__detail::_Mod_range_hashing, std::__detail::_Default_ranged_hash, true>::_Hash_code_base()
FUNC 36a18 2b 0 std::__detail::_Hashtable_base<std::__cxx11::basic_string<char, std::char_traits<char>, std::allocator<char> >, std::pair<std::__cxx11::basic_string<char, std::char_traits<char>, std::allocator<char> > const, spdlog::level::level_enum>, std::__detail::_Select1st, std::equal_to<std::__cxx11::basic_string<char, std::char_traits<char>, std::allocator<char> > >, std::hash<std::__cxx11::basic_string<char, std::char_traits<char>, std::allocator<char> > >, std::__detail::_Mod_range_hashing, std::__detail::_Default_ranged_hash, std::__detail::_Hashtable_traits<true, false, true> >::_Hashtable_base()
FUNC 36a44 28 0 std::__detail::_Hashtable_ebo_helper<0, std::allocator<std::__detail::_Hash_node<std::pair<std::__cxx11::basic_string<char, std::char_traits<char>, std::allocator<char> > const, spdlog::level::level_enum>, true> >, true>::~_Hashtable_ebo_helper()
FUNC 36a6c 1f 0 std::__detail::_Hashtable_alloc<std::allocator<std::__detail::_Hash_node<std::pair<std::__cxx11::basic_string<char, std::char_traits<char>, std::allocator<char> > const, spdlog::level::level_enum>, true> > >::_Hashtable_alloc()
FUNC 36a8c 1f 0 std::__detail::_Hashtable_alloc<std::allocator<std::__detail::_Hash_node<std::pair<std::__cxx11::basic_string<char, std::char_traits<char>, std::allocator<char> > const, spdlog::level::level_enum>, true> > >::~_Hashtable_alloc()
FUNC 36aac 88 0 std::_Hashtable<std::__cxx11::basic_string<char, std::char_traits<char>, std::allocator<char> >, std::pair<std::__cxx11::basic_string<char, std::char_traits<char>, std::allocator<char> > const, spdlog::level::level_enum>, std::allocator<std::pair<std::__cxx11::basic_string<char, std::char_traits<char>, std::allocator<char> > const, spdlog::level::level_enum> >, std::__detail::_Select1st, std::equal_to<std::__cxx11::basic_string<char, std::char_traits<char>, std::allocator<char> > >, std::hash<std::__cxx11::basic_string<char, std::char_traits<char>, std::allocator<char> > >, std::__detail::_Mod_range_hashing, std::__detail::_Default_ranged_hash, std::__detail::_Prime_rehash_policy, std::__detail::_Hashtable_traits<true, false, true> >::_Hashtable()
FUNC 36b34 1f 0 std::unordered_map<std::__cxx11::basic_string<char, std::char_traits<char>, std::allocator<char> >, spdlog::level::level_enum, std::hash<std::__cxx11::basic_string<char, std::char_traits<char>, std::allocator<char> > >, std::equal_to<std::__cxx11::basic_string<char, std::char_traits<char>, std::allocator<char> > >, std::allocator<std::pair<std::__cxx11::basic_string<char, std::char_traits<char>, std::allocator<char> > const, spdlog::level::level_enum> > >::unordered_map()
FUNC 36b54 1f 0 std::unordered_map<std::__cxx11::basic_string<char, std::char_traits<char>, std::allocator<char> >, spdlog::level::level_enum, std::hash<std::__cxx11::basic_string<char, std::char_traits<char>, std::allocator<char> > >, std::equal_to<std::__cxx11::basic_string<char, std::char_traits<char>, std::allocator<char> > >, std::allocator<std::pair<std::__cxx11::basic_string<char, std::char_traits<char>, std::allocator<char> > const, spdlog::level::level_enum> > >::~unordered_map()
FUNC 36b74 43 0 std::__shared_ptr<spdlog::logger, (__gnu_cxx::_Lock_policy)2>::operator=(std::__shared_ptr<spdlog::logger, (__gnu_cxx::_Lock_policy)2> const&)
FUNC 36bb8 2d 0 std::shared_ptr<spdlog::logger>::operator=(std::shared_ptr<spdlog::logger> const&)
FUNC 36be6 40 0 std::__shared_ptr<spdlog::details::thread_pool, (__gnu_cxx::_Lock_policy)2>::__shared_ptr(std::__shared_ptr<spdlog::details::thread_pool, (__gnu_cxx::_Lock_policy)2> const&)
FUNC 36c26 2a 0 std::shared_ptr<spdlog::details::thread_pool>::shared_ptr(std::shared_ptr<spdlog::details::thread_pool> const&)
FUNC 36c50 2d 0 std::__uniq_ptr_data<spdlog::formatter, std::default_delete<spdlog::formatter>, true, true>::operator=(std::__uniq_ptr_data<spdlog::formatter, std::default_delete<spdlog::formatter>, true, true>&&)
FUNC 36c7e 2d 0 std::unique_ptr<spdlog::formatter, std::default_delete<spdlog::formatter> >::operator=(std::unique_ptr<spdlog::formatter, std::default_delete<spdlog::formatter> >&&)
FUNC 36cac 2d 0 std::unordered_map<std::__cxx11::basic_string<char, std::char_traits<char>, std::allocator<char> >, spdlog::level::level_enum, std::hash<std::__cxx11::basic_string<char, std::char_traits<char>, std::allocator<char> > >, std::equal_to<std::__cxx11::basic_string<char, std::char_traits<char>, std::allocator<char> > >, std::allocator<std::pair<std::__cxx11::basic_string<char, std::char_traits<char>, std::allocator<char> > const, spdlog::level::level_enum> > >::operator=(std::unordered_map<std::__cxx11::basic_string<char, std::char_traits<char>, std::allocator<char> >, spdlog::level::level_enum, std::hash<std::__cxx11::basic_string<char, std::char_traits<char>, std::allocator<char> > >, std::equal_to<std::__cxx11::basic_string<char, std::char_traits<char>, std::allocator<char> > >, std::allocator<std::pair<std::__cxx11::basic_string<char, std::char_traits<char>, std::allocator<char> > const, spdlog::level::level_enum> > >&&)
FUNC 36cda 2a 0 std::_Vector_base<std::shared_ptr<spdlog::sinks::sink>, std::allocator<std::shared_ptr<spdlog::sinks::sink> > >::_Vector_base(std::_Vector_base<std::shared_ptr<spdlog::sinks::sink>, std::allocator<std::shared_ptr<spdlog::sinks::sink> > >&&)
FUNC 36d04 2a 0 std::vector<std::shared_ptr<spdlog::sinks::sink>, std::allocator<std::shared_ptr<spdlog::sinks::sink> > >::vector(std::vector<std::shared_ptr<spdlog::sinks::sink>, std::allocator<std::shared_ptr<spdlog::sinks::sink> > >&&)
FUNC 36d2e 2a 0 std::__uniq_ptr_data<spdlog::formatter, std::default_delete<spdlog::formatter>, true, true>::__uniq_ptr_data(std::__uniq_ptr_data<spdlog::formatter, std::default_delete<spdlog::formatter>, true, true>&&)
FUNC 36d58 2a 0 std::unique_ptr<spdlog::formatter, std::default_delete<spdlog::formatter> >::unique_ptr(std::unique_ptr<spdlog::formatter, std::default_delete<spdlog::formatter> >&&)
FUNC 36d82 1f 0 std::function<void (spdlog::details::log_msg const&)>::~function()
FUNC 36da2 24 0 std::chrono::time_point<std::chrono::_V2::system_clock, std::chrono::duration<long, std::ratio<1l, 1000000000l> > >::time_point()
FUNC 36dc6 62 0 spdlog::details::fmt_helper::append_string_view(fmt::v11::basic_string_view<char>, fmt::v11::basic_memory_buffer<char, 250ul, fmt::v11::detail::allocator<char> >&)
FUNC 36e28 49 0 spdlog::details::fmt_helper::pad2(int, fmt::v11::basic_memory_buffer<char, 250ul, fmt::v11::detail::allocator<char> >&)::{lambda()#1}::operator()() const
FUNC 36e93 166 0 spdlog::details::fmt_helper::pad2(int, fmt::v11::basic_memory_buffer<char, 250ul, fmt::v11::detail::allocator<char> >&)
FUNC 36ffa 1f 0 std::_Rb_tree<std::__cxx11::basic_string<char, std::char_traits<char>, std::allocator<char> >, std::pair<std::__cxx11::basic_string<char, std::char_traits<char>, std::allocator<char> > const, std::__cxx11::basic_string<char, std::char_traits<char>, std::allocator<char> > >, std::_Select1st<std::pair<std::__cxx11::basic_string<char, std::char_traits<char>, std::allocator<char> > const, std::__cxx11::basic_string<char, std::char_traits<char>, std::allocator<char> > > >, std::less<std::__cxx11::basic_string<char, std::char_traits<char>, std::allocator<char> > >, std::allocator<std::pair<std::__cxx11::basic_string<char, std::char_traits<char>, std::allocator<char> > const, std::__cxx11::basic_string<char, std::char_traits<char>, std::allocator<char> > > > >::_Rb_tree()
FUNC 3701a 1f 0 std::map<std::__cxx11::basic_string<char, std::char_traits<char>, std::allocator<char> >, std::__cxx11::basic_string<char, std::char_traits<char>, std::allocator<char> >, std::less<std::__cxx11::basic_string<char, std::char_traits<char>, std::allocator<char> > >, std::allocator<std::pair<std::__cxx11::basic_string<char, std::char_traits<char>, std::allocator<char> > const, std::__cxx11::basic_string<char, std::char_traits<char>, std::allocator<char> > > > >::map()
FUNC 37039 80 0 spdlog::mdc::get_context[abi:cxx11]()
FUNC 370ba 111 0 spdlog::details::scoped_padder::scoped_padder(unsigned long, spdlog::details::padding_info const&, fmt::v11::basic_memory_buffer<char, 250ul, fmt::v11::detail::allocator<char> >&)
FUNC 371cc 90 0 spdlog::details::scoped_padder::~scoped_padder()
FUNC 3725c 8b 0 spdlog::details::scoped_padder::pad_it(long)
FUNC 372e8 1b 0 spdlog::details::null_scoped_padder::null_scoped_padder(unsigned long, spdlog::details::padding_info const&, fmt::v11::basic_memory_buffer<char, 250ul, fmt::v11::detail::allocator<char> >&)
FUNC 37304 35 0 spdlog::details::padding_info::padding_info()
FUNC 3733a 31 0 spdlog::details::flag_formatter::flag_formatter()
FUNC 3736c 1d 0 spdlog::details::flag_formatter::~flag_formatter()
FUNC 3738a 2f 0 spdlog::details::flag_formatter::~flag_formatter()
FUNC 373ba 3d 0 spdlog::details::ch_formatter::ch_formatter(char)
FUNC 373f8 36 0 spdlog::details::ch_formatter::format(spdlog::details::log_msg const&, tm const&, fmt::v11::basic_memory_buffer<char, 250ul, fmt::v11::detail::allocator<char> >&)
FUNC 3742e 2e 0 spdlog::details::aggregate_formatter::add_ch(char)
FUNC 3745c 70 0 spdlog::details::aggregate_formatter::format(spdlog::details::log_msg const&, tm const&, fmt::v11::basic_memory_buffer<char, 250ul, fmt::v11::detail::allocator<char> >&)
FUNC 374cc 4c 0 spdlog::details::color_start_formatter::color_start_formatter(spdlog::details::padding_info)
FUNC 37518 33 0 spdlog::details::color_start_formatter::format(spdlog::details::log_msg const&, tm const&, fmt::v11::basic_memory_buffer<char, 250ul, fmt::v11::detail::allocator<char> >&)
FUNC 3754c 4c 0 spdlog::details::color_stop_formatter::color_stop_formatter(spdlog::details::padding_info)
FUNC 37598 33 0 spdlog::details::color_stop_formatter::format(spdlog::details::log_msg const&, tm const&, fmt::v11::basic_memory_buffer<char, 250ul, fmt::v11::detail::allocator<char> >&)
FUNC 375cc 2d 0 spdlog::details::mdc_formatter<spdlog::details::null_scoped_padder>::~mdc_formatter()
FUNC 375fa 2f 0 spdlog::details::mdc_formatter<spdlog::details::null_scoped_padder>::~mdc_formatter()
FUNC 3762a 122 0 spdlog::details::full_formatter::full_formatter(spdlog::details::padding_info)
FUNC 3774c 5dd 0 spdlog::details::full_formatter::format(spdlog::details::log_msg const&, tm const&, fmt::v11::basic_memory_buffer<char, 250ul, fmt::v11::detail::allocator<char> >&)
FUNC 37d2a 1d 0 spdlog::formatter::formatter()
FUNC 37d48 1d 0 spdlog::formatter::~formatter()
FUNC 37d66 2f 0 spdlog::formatter::~formatter()
FUNC 37d96 28 0 std::_Vector_base<std::unique_ptr<spdlog::details::flag_formatter, std::default_delete<spdlog::details::flag_formatter> >, std::allocator<std::unique_ptr<spdlog::details::flag_formatter, std::default_delete<spdlog::details::flag_formatter> > > >::_Vector_impl::~_Vector_impl()
FUNC 37dbe 1f 0 std::_Vector_base<std::unique_ptr<spdlog::details::flag_formatter, std::default_delete<spdlog::details::flag_formatter> >, std::allocator<std::unique_ptr<spdlog::details::flag_formatter, std::default_delete<spdlog::details::flag_formatter> > > >::_Vector_base()
FUNC 37dde 1f 0 std::vector<std::unique_ptr<spdlog::details::flag_formatter, std::default_delete<spdlog::details::flag_formatter> >, std::allocator<std::unique_ptr<spdlog::details::flag_formatter, std::default_delete<spdlog::details::flag_formatter> > > >::vector()
FUNC 37dfe 2a 0 std::unordered_map<char, std::unique_ptr<spdlog::custom_flag_formatter, std::default_delete<spdlog::custom_flag_formatter> >, std::hash<char>, std::equal_to<char>, std::allocator<std::pair<char const, std::unique_ptr<spdlog::custom_flag_formatter, std::default_delete<spdlog::custom_flag_formatter> > > > >::unordered_map(std::unordered_map<char, std::unique_ptr<spdlog::custom_flag_formatter, std::default_delete<spdlog::custom_flag_formatter> >, std::hash<char>, std::equal_to<char>, std::allocator<std::pair<char const, std::unique_ptr<spdlog::custom_flag_formatter, std::default_delete<spdlog::custom_flag_formatter> > > > >&&)
FUNC 37e28 2d 0 std::__uniq_ptr_data<spdlog::custom_flag_formatter, std::default_delete<spdlog::custom_flag_formatter>, true, true>::operator=(std::__uniq_ptr_data<spdlog::custom_flag_formatter, std::default_delete<spdlog::custom_flag_formatter>, true, true>&&)
FUNC 37e56 2d 0 std::unique_ptr<spdlog::custom_flag_formatter, std::default_delete<spdlog::custom_flag_formatter> >::operator=(std::unique_ptr<spdlog::custom_flag_formatter, std::default_delete<spdlog::custom_flag_formatter> >&&)
FUNC 37e84 1f 0 std::tuple<spdlog::details::aggregate_formatter*, std::default_delete<spdlog::details::aggregate_formatter> >::tuple<true, true>()
FUNC 37ea4 2b 0 std::_Tuple_impl<0ul, spdlog::details::aggregate_formatter*, std::default_delete<spdlog::details::aggregate_formatter> >::_Tuple_impl()
FUNC 37ed0 1f 0 std::_Tuple_impl<1ul, std::default_delete<spdlog::details::aggregate_formatter> >::_Tuple_impl()
FUNC 37ef0 f 0 std::_Head_base<1ul, std::default_delete<spdlog::details::aggregate_formatter>, true>::_Head_base()
FUNC 37f00 1a 0 std::_Head_base<0ul, spdlog::details::aggregate_formatter*, false>::_Head_base()
FUNC 37f1a 2d 0 std::__uniq_ptr_data<spdlog::details::aggregate_formatter, std::default_delete<spdlog::details::aggregate_formatter>, true, true>::operator=(std::__uniq_ptr_data<spdlog::details::aggregate_formatter, std::default_delete<spdlog::details::aggregate_formatter>, true, true>&&)
FUNC 37f48 2d 0 std::unique_ptr<spdlog::details::aggregate_formatter, std::default_delete<spdlog::details::aggregate_formatter> >::operator=(std::unique_ptr<spdlog::details::aggregate_formatter, std::default_delete<spdlog::details::aggregate_formatter> >&&)
FUNC 37f76 13b 0 spdlog::logger::logger<std::shared_ptr<spdlog::sinks::sink> const*>(std::__cxx11::basic_string<char, std::char_traits<char>, std::allocator<char> >, std::shared_ptr<spdlog::sinks::sink> const*, std::shared_ptr<spdlog::sinks::sink> const*)
FUNC 380b2 c8 0 spdlog::sinks::base_sink<std::mutex>::base_sink()
FUNC 3817a 65 0 spdlog::sinks::base_sink<std::mutex>::base_sink(std::unique_ptr<spdlog::formatter, std::default_delete<spdlog::formatter> >)
FUNC 381e0 b3 0 spdlog::sinks::base_sink<std::mutex>::log(spdlog::details::log_msg const&)
FUNC 38294 a8 0 spdlog::sinks::base_sink<std::mutex>::flush()
FUNC 3833c b3 0 spdlog::sinks::base_sink<std::mutex>::set_pattern(std::__cxx11::basic_string<char, std::char_traits<char>, std::allocator<char> > const&)
FUNC 383f0 e9 0 spdlog::sinks::base_sink<std::mutex>::set_formatter(std::unique_ptr<spdlog::formatter, std::default_delete<spdlog::formatter> >)
FUNC 384da db 0 spdlog::sinks::base_sink<std::mutex>::set_pattern_(std::__cxx11::basic_string<char, std::char_traits<char>, std::allocator<char> > const&)
FUNC 385b6 39 0 spdlog::sinks::base_sink<std::mutex>::set_formatter_(std::unique_ptr<spdlog::formatter, std::default_delete<spdlog::formatter> >)
FUNC 385f0 b8 0 spdlog::sinks::base_sink<spdlog::details::null_mutex>::base_sink()
FUNC 386a8 55 0 spdlog::sinks::base_sink<spdlog::details::null_mutex>::base_sink(std::unique_ptr<spdlog::formatter, std::default_delete<spdlog::formatter> >)
FUNC 386fe b3 0 spdlog::sinks::base_sink<spdlog::details::null_mutex>::log(spdlog::details::log_msg const&)
FUNC 387b2 a8 0 spdlog::sinks::base_sink<spdlog::details::null_mutex>::flush()
FUNC 3885a b3 0 spdlog::sinks::base_sink<spdlog::details::null_mutex>::set_pattern(std::__cxx11::basic_string<char, std::char_traits<char>, std::allocator<char> > const&)
FUNC 3890e e9 0 spdlog::sinks::base_sink<spdlog::details::null_mutex>::set_formatter(std::unique_ptr<spdlog::formatter, std::default_delete<spdlog::formatter> >)
FUNC 389f8 db 0 spdlog::sinks::base_sink<spdlog::details::null_mutex>::set_pattern_(std::__cxx11::basic_string<char, std::char_traits<char>, std::allocator<char> > const&)
FUNC 38ad4 39 0 spdlog::sinks::base_sink<spdlog::details::null_mutex>::set_formatter_(std::unique_ptr<spdlog::formatter, std::default_delete<spdlog::formatter> >)
FUNC 38b0e a9 0 std::__atomic_base<bool>::operator=(bool)
FUNC 38bb7 10 0 unsigned long fmt::v11::min_of<unsigned long>(unsigned long, unsigned long)
FUNC 38bc7 27 0 std::make_unsigned<int>::type fmt::v11::detail::to_unsigned<int>(int)
FUNC 38bee 29 0 std::make_unsigned<long>::type fmt::v11::detail::to_unsigned<long>(long)
FUNC 38c17 76 0 int fmt::v11::detail::count_digits_fallback<unsigned long>(unsigned long)
FUNC 38c8d 6d 0 int fmt::v11::detail::count_digits_fallback<unsigned int>(unsigned int)
FUNC 38cfa 2e 0 fmt::v11::detail::buffer<char>::try_resize(unsigned long)
FUNC 38d28 3c 0 fmt::v11::detail::buffer<char>::push_back(char const&)
FUNC 38d64 58 0 char* fmt::v11::format_int::format_signed<int>(int)
FUNC 38dbc 60 0 char* fmt::v11::format_int::format_signed<long>(long)
FUNC 38e1c 31 0 char* fmt::v11::format_int::format_unsigned<unsigned int>(unsigned int)
FUNC 38e4e 36 0 char* fmt::v11::format_int::format_unsigned<unsigned long>(unsigned long)
FUNC 38e84 8 0 fmt::v11::detail::buffer<char>::data() const
FUNC 38e8c 3c 0 fmt::v11::basic_string_view<char> const* std::find<fmt::v11::basic_string_view<char> const*, std::__cxx11::basic_string<char, std::char_traits<char>, std::allocator<char> > >(fmt::v11::basic_string_view<char> const*, fmt::v11::basic_string_view<char> const*, std::__cxx11::basic_string<char, std::char_traits<char>, std::allocator<char> > const&)
FUNC 38ec8 7b 0 bool std::operator==<char, std::char_traits<char>, std::allocator<char> >(std::__cxx11::basic_string<char, std::char_traits<char>, std::allocator<char> > const&, char const*)
FUNC 38f43 101 0 std::__cxx11::basic_string<char, std::char_traits<char>, std::allocator<char> > fmt::v11::to_string<250ul>(fmt::v11::basic_memory_buffer<char, 250ul, fmt::v11::detail::allocator<char> > const&)
FUNC 39044 31 0 std::lock_guard<std::mutex>::lock_guard(std::mutex&)
FUNC 39076 22 0 std::lock_guard<std::mutex>::~lock_guard()
FUNC 39098 450 0 std::vector<spdlog::details::log_msg_buffer, std::allocator<spdlog::details::log_msg_buffer> >::operator=(std::vector<spdlog::details::log_msg_buffer, std::allocator<spdlog::details::log_msg_buffer> > const&)
FUNC 394e8 12 0 std::remove_reference<spdlog::details::circular_q<spdlog::details::log_msg_buffer>&>::type&& std::move<spdlog::details::circular_q<spdlog::details::log_msg_buffer>&>(spdlog::details::circular_q<spdlog::details::log_msg_buffer>&)
FUNC 394fa 38 0 spdlog::details::circular_q<spdlog::details::log_msg_buffer>::operator=(spdlog::details::circular_q<spdlog::details::log_msg_buffer>&&)
FUNC 39532 dc 0 spdlog::details::circular_q<spdlog::details::log_msg_buffer>::circular_q(unsigned long)
FUNC 3960e e2 0 spdlog::details::circular_q<spdlog::details::log_msg_buffer>::push_back(spdlog::details::log_msg_buffer&&)
FUNC 396f0 24 0 spdlog::details::circular_q<spdlog::details::log_msg_buffer>::empty() const
FUNC 39714 2d 0 spdlog::details::circular_q<spdlog::details::log_msg_buffer>::front()
FUNC 39742 54 0 std::function<void (spdlog::details::log_msg const&)>::operator()(spdlog::details::log_msg const&) const
FUNC 39796 3b 0 spdlog::details::circular_q<spdlog::details::log_msg_buffer>::pop_front()
FUNC 397d2 86 0 void fmt::v11::detail::buffer<char>::append<char>(char const*, char const*)
FUNC 39858 12 0 std::remove_reference<fmt::v11::basic_memory_buffer<char, 250ul, fmt::v11::detail::allocator<char> >&>::type&& std::move<fmt::v11::basic_memory_buffer<char, 250ul, fmt::v11::detail::allocator<char> >&>(fmt::v11::basic_memory_buffer<char, 250ul, fmt::v11::detail::allocator<char> >&)
FUNC 3986a 4d 0 fmt::v11::basic_memory_buffer<char, 250ul, fmt::v11::detail::allocator<char> >::basic_memory_buffer(fmt::v11::basic_memory_buffer<char, 250ul, fmt::v11::detail::allocator<char> >&&)
FUNC 398b8 d 0 fmt::v11::detail::buffer<char>::clear()
FUNC 398c6 61 0 fmt::v11::basic_memory_buffer<char, 250ul, fmt::v11::detail::allocator<char> >::operator=(fmt::v11::basic_memory_buffer<char, 250ul, fmt::v11::detail::allocator<char> >&&)
FUNC 39928 22 0 std::chrono::duration<long, std::ratio<1l, 1000l> >::duration<unsigned int, void>(unsigned int const&)
FUNC 3994a e8 0 void std::this_thread::sleep_for<long, std::ratio<1l, 1000l> >(std::chrono::duration<long, std::ratio<1l, 1000l> > const&)
FUNC 39a32 10 0 int spdlog::details::conditional_static_cast<int, int, 0>(int)
FUNC 39a42 1e 0 std::array<char const*, 16ul>::begin() const
FUNC 39a60 22 0 std::array<char const*, 16ul>::end() const
FUNC 39a82 15 0 std::initializer_list<std::shared_ptr<spdlog::sinks::sink> >::begin() const
FUNC 39a98 39 0 std::initializer_list<std::shared_ptr<spdlog::sinks::sink> >::end() const
FUNC 39ad2 f 0 std::__detail::_Hashtable_ebo_helper<1, std::hash<char>, true>::_Hashtable_ebo_helper()
FUNC 39ae2 f 0 std::__detail::_Hashtable_ebo_helper<0, std::equal_to<char>, true>::_Hashtable_ebo_helper()
FUNC 39af2 21 0 std::__detail::_Hashtable_ebo_helper<0, std::allocator<std::__detail::_Hash_node<std::pair<char const, std::unique_ptr<spdlog::custom_flag_formatter, std::default_delete<spdlog::custom_flag_formatter> > >, false> >, true>::_Hashtable_ebo_helper()
FUNC 39b14 37 0 std::_Hashtable<char, std::pair<char const, std::unique_ptr<spdlog::custom_flag_formatter, std::default_delete<spdlog::custom_flag_formatter> > >, std::allocator<std::pair<char const, std::unique_ptr<spdlog::custom_flag_formatter, std::default_delete<spdlog::custom_flag_formatter> > > >, std::__detail::_Select1st, std::equal_to<char>, std::hash<char>, std::__detail::_Mod_range_hashing, std::__detail::_Default_ranged_hash, std::__detail::_Prime_rehash_policy, std::__detail::_Hashtable_traits<false, false, true> >::~_Hashtable()
FUNC 39b4c f 0 std::__detail::_Hashtable_ebo_helper<1, std::hash<std::__cxx11::basic_string<char, std::char_traits<char>, std::allocator<char> > >, true>::_Hashtable_ebo_helper()
FUNC 39b5c f 0 std::__detail::_Hashtable_ebo_helper<0, std::equal_to<std::__cxx11::basic_string<char, std::char_traits<char>, std::allocator<char> > >, true>::_Hashtable_ebo_helper()
FUNC 39b6c 21 0 std::__detail::_Hashtable_ebo_helper<0, std::allocator<std::__detail::_Hash_node<std::pair<std::__cxx11::basic_string<char, std::char_traits<char>, std::allocator<char> > const, std::shared_ptr<spdlog::logger> >, true> >, true>::_Hashtable_ebo_helper()
FUNC 39b8e 37 0 std::_Hashtable<std::__cxx11::basic_string<char, std::char_traits<char>, std::allocator<char> >, std::pair<std::__cxx11::basic_string<char, std::char_traits<char>, std::allocator<char> > const, std::shared_ptr<spdlog::logger> >, std::allocator<std::pair<std::__cxx11::basic_string<char, std::char_traits<char>, std::allocator<char> > const, std::shared_ptr<spdlog::logger> > >, std::__detail::_Select1st, std::equal_to<std::__cxx11::basic_string<char, std::char_traits<char>, std::allocator<char> > >, std::hash<std::__cxx11::basic_string<char, std::char_traits<char>, std::allocator<char> > >, std::__detail::_Mod_range_hashing, std::__detail::_Default_ranged_hash, std::__detail::_Prime_rehash_policy, std::__detail::_Hashtable_traits<true, false, true> >::~_Hashtable()
FUNC 39bc6 21 0 std::__detail::_Hashtable_ebo_helper<0, std::allocator<std::__detail::_Hash_node<std::pair<std::__cxx11::basic_string<char, std::char_traits<char>, std::allocator<char> > const, spdlog::level::level_enum>, true> >, true>::_Hashtable_ebo_helper()
FUNC 39be8 37 0 std::_Hashtable<std::__cxx11::basic_string<char, std::char_traits<char>, std::allocator<char> >, std::pair<std::__cxx11::basic_string<char, std::char_traits<char>, std::allocator<char> > const, spdlog::level::level_enum>, std::allocator<std::pair<std::__cxx11::basic_string<char, std::char_traits<char>, std::allocator<char> > const, spdlog::level::level_enum> >, std::__detail::_Select1st, std::equal_to<std::__cxx11::basic_string<char, std::char_traits<char>, std::allocator<char> > >, std::hash<std::__cxx11::basic_string<char, std::char_traits<char>, std::allocator<char> > >, std::__detail::_Mod_range_hashing, std::__detail::_Default_ranged_hash, std::__detail::_Prime_rehash_policy, std::__detail::_Hashtable_traits<true, false, true> >::~_Hashtable()
FUNC 39c20 2a 0 std::__uniq_ptr_data<spdlog::formatter, std::default_delete<spdlog::formatter>, true, true>::__uniq_ptr_impl(spdlog::formatter*)
FUNC 39c4a 2a 0 std::unique_ptr<spdlog::formatter, std::default_delete<spdlog::formatter> >::unique_ptr<std::default_delete<spdlog::formatter>, void>(spdlog::formatter*)
FUNC 39c74 3b 0 std::function<void (std::__cxx11::basic_string<char, std::char_traits<char>, std::allocator<char> > const&)>::function()
FUNC 39cb0 1f 0 std::shared_ptr<spdlog::details::thread_pool>::shared_ptr()
FUNC 39cd0 1f 0 std::__uniq_ptr_impl<spdlog::details::periodic_worker, std::default_delete<spdlog::details::periodic_worker> >::__uniq_ptr_impl()
FUNC 39cf0 1f 0 std::__uniq_ptr_data<spdlog::details::periodic_worker, std::default_delete<spdlog::details::periodic_worker>, true, true>::__uniq_ptr_impl()
FUNC 39d10 2a 0 std::unique_ptr<spdlog::details::periodic_worker, std::default_delete<spdlog::details::periodic_worker> >::unique_ptr<std::default_delete<spdlog::details::periodic_worker>, void>()
FUNC 39d3a 68 0 std::unique_ptr<spdlog::details::periodic_worker, std::default_delete<spdlog::details::periodic_worker> >::~unique_ptr()
FUNC 39da2 1f 0 std::shared_ptr<spdlog::logger>::shared_ptr()
FUNC 39dc1 12 0 std::remove_reference<std::shared_ptr<spdlog::sinks::ansicolor_stdout_sink<spdlog::details::console_mutex> >&>::type&& std::move<std::shared_ptr<spdlog::sinks::ansicolor_stdout_sink<spdlog::details::console_mutex> >&>(std::shared_ptr<spdlog::sinks::ansicolor_stdout_sink<spdlog::details::console_mutex> >&)
FUNC 39dd3 7a 0 std::shared_ptr<std::enable_if<!std::is_array<spdlog::logger>::value, spdlog::logger>::type> std::make_shared<spdlog::logger, char const*&, std::shared_ptr<spdlog::sinks::ansicolor_stdout_sink<spdlog::details::console_mutex> > >(char const*&, std::shared_ptr<spdlog::sinks::ansicolor_stdout_sink<spdlog::details::console_mutex> >&&)
FUNC 39e4e 36 0 std::unordered_map<std::__cxx11::basic_string<char, std::char_traits<char>, std::allocator<char> >, std::shared_ptr<spdlog::logger>, std::hash<std::__cxx11::basic_string<char, std::char_traits<char>, std::allocator<char> > >, std::equal_to<std::__cxx11::basic_string<char, std::char_traits<char>, std::allocator<char> > >, std::allocator<std::pair<std::__cxx11::basic_string<char, std::char_traits<char>, std::allocator<char> > const, std::shared_ptr<spdlog::logger> > > >::operator[](std::__cxx11::basic_string<char, std::char_traits<char>, std::allocator<char> >&&)
FUNC 39e84 6b 0 std::__shared_count<(__gnu_cxx::_Lock_policy)2>::operator=(std::__shared_count<(__gnu_cxx::_Lock_policy)2> const&)
FUNC 39ef0 37 0 std::shared_ptr<spdlog::logger>::shared_ptr(std::shared_ptr<spdlog::logger>&&)
FUNC 39f28 21 0 std::function<void (std::__cxx11::basic_string<char, std::char_traits<char>, std::allocator<char> > const&)>::operator bool() const
FUNC 39f4a b2 0 std::function<void (std::__cxx11::basic_string<char, std::char_traits<char>, std::allocator<char> > const&)>::function(std::function<void (std::__cxx11::basic_string<char, std::char_traits<char>, std::allocator<char> > const&)> const&)
FUNC 39ffc 29 0 std::unordered_map<std::__cxx11::basic_string<char, std::char_traits<char>, std::allocator<char> >, spdlog::level::level_enum, std::hash<std::__cxx11::basic_string<char, std::char_traits<char>, std::allocator<char> > >, std::equal_to<std::__cxx11::basic_string<char, std::char_traits<char>, std::allocator<char> > >, std::allocator<std::pair<std::__cxx11::basic_string<char, std::char_traits<char>, std::allocator<char> > const, spdlog::level::level_enum> > >::find(std::__cxx11::basic_string<char, std::char_traits<char>, std::allocator<char> > const&)
FUNC 3a026 1e 0 std::unordered_map<std::__cxx11::basic_string<char, std::char_traits<char>, std::allocator<char> >, spdlog::level::level_enum, std::hash<std::__cxx11::basic_string<char, std::char_traits<char>, std::allocator<char> > >, std::equal_to<std::__cxx11::basic_string<char, std::char_traits<char>, std::allocator<char> > >, std::allocator<std::pair<std::__cxx11::basic_string<char, std::char_traits<char>, std::allocator<char> > const, spdlog::level::level_enum> > >::end()
FUNC 3a044 26 0 std::__detail::operator!=(std::__detail::_Node_iterator_base<std::pair<std::__cxx11::basic_string<char, std::char_traits<char>, std::allocator<char> > const, spdlog::level::level_enum>, true> const&, std::__detail::_Node_iterator_base<std::pair<std::__cxx11::basic_string<char, std::char_traits<char>, std::allocator<char> > const, spdlog::level::level_enum>, true> const&)
FUNC 3a06a 2e 0 std::__detail::_Node_iterator<std::pair<std::__cxx11::basic_string<char, std::char_traits<char>, std::allocator<char> > const, spdlog::level::level_enum>, false, true>::operator->() const
FUNC 3a098 29 0 std::unordered_map<std::__cxx11::basic_string<char, std::char_traits<char>, std::allocator<char> >, std::shared_ptr<spdlog::logger>, std::hash<std::__cxx11::basic_string<char, std::char_traits<char>, std::allocator<char> > >, std::equal_to<std::__cxx11::basic_string<char, std::char_traits<char>, std::allocator<char> > >, std::allocator<std::pair<std::__cxx11::basic_string<char, std::char_traits<char>, std::allocator<char> > const, std::shared_ptr<spdlog::logger> > > >::find(std::__cxx11::basic_string<char, std::char_traits<char>, std::allocator<char> > const&)
FUNC 3a0c2 1e 0 std::unordered_map<std::__cxx11::basic_string<char, std::char_traits<char>, std::allocator<char> >, std::shared_ptr<spdlog::logger>, std::hash<std::__cxx11::basic_string<char, std::char_traits<char>, std::allocator<char> > >, std::equal_to<std::__cxx11::basic_string<char, std::char_traits<char>, std::allocator<char> > >, std::allocator<std::pair<std::__cxx11::basic_string<char, std::char_traits<char>, std::allocator<char> > const, std::shared_ptr<spdlog::logger> > > >::end()
FUNC 3a0e0 26 0 std::__detail::operator==(std::__detail::_Node_iterator_base<std::pair<std::__cxx11::basic_string<char, std::char_traits<char>, std::allocator<char> > const, std::shared_ptr<spdlog::logger> >, true> const&, std::__detail::_Node_iterator_base<std::pair<std::__cxx11::basic_string<char, std::char_traits<char>, std::allocator<char> > const, std::shared_ptr<spdlog::logger> >, true> const&)
FUNC 3a106 2e 0 std::__detail::_Node_iterator<std::pair<std::__cxx11::basic_string<char, std::char_traits<char>, std::allocator<char> > const, std::shared_ptr<spdlog::logger> >, false, true>::operator->() const
FUNC 3a134 23 0 std::shared_ptr<spdlog::logger>::shared_ptr(decltype(nullptr))
FUNC 3a157 22 0 bool std::operator!=<spdlog::logger>(std::shared_ptr<spdlog::logger> const&, decltype(nullptr))
FUNC 3a17a 29 0 std::unordered_map<std::__cxx11::basic_string<char, std::char_traits<char>, std::allocator<char> >, std::shared_ptr<spdlog::logger>, std::hash<std::__cxx11::basic_string<char, std::char_traits<char>, std::allocator<char> > >, std::equal_to<std::__cxx11::basic_string<char, std::char_traits<char>, std::allocator<char> > >, std::allocator<std::pair<std::__cxx11::basic_string<char, std::char_traits<char>, std::allocator<char> > const, std::shared_ptr<spdlog::logger> > > >::operator[](std::__cxx11::basic_string<char, std::char_traits<char>, std::allocator<char> > const&)
FUNC 3a1a4 31 0 std::lock_guard<std::recursive_mutex>::lock_guard(std::recursive_mutex&)
FUNC 3a1d6 22 0 std::lock_guard<std::recursive_mutex>::~lock_guard()
FUNC 3a1f8 3a 0 std::shared_ptr<spdlog::details::thread_pool>::operator=(std::shared_ptr<spdlog::details::thread_pool>&&)
FUNC 3a232 12 0 std::remove_reference<std::unique_ptr<spdlog::formatter, std::default_delete<spdlog::formatter> >&>::type&& std::move<std::unique_ptr<spdlog::formatter, std::default_delete<spdlog::formatter> >&>(std::unique_ptr<spdlog::formatter, std::default_delete<spdlog::formatter> >&)
FUNC 3a244 58 0 std::__uniq_ptr_impl<spdlog::formatter, std::default_delete<spdlog::formatter> >::operator=(std::__uniq_ptr_impl<spdlog::formatter, std::default_delete<spdlog::formatter> >&&)
FUNC 3a29c 1e 0 std::unordered_map<std::__cxx11::basic_string<char, std::char_traits<char>, std::allocator<char> >, std::shared_ptr<spdlog::logger>, std::hash<std::__cxx11::basic_string<char, std::char_traits<char>, std::allocator<char> > >, std::equal_to<std::__cxx11::basic_string<char, std::char_traits<char>, std::allocator<char> > >, std::allocator<std::pair<std::__cxx11::basic_string<char, std::char_traits<char>, std::allocator<char> > const, std::shared_ptr<spdlog::logger> > > >::begin()
FUNC 3a2ba 26 0 std::__detail::operator!=(std::__detail::_Node_iterator_base<std::pair<std::__cxx11::basic_string<char, std::char_traits<char>, std::allocator<char> > const, std::shared_ptr<spdlog::logger> >, true> const&, std::__detail::_Node_iterator_base<std::pair<std::__cxx11::basic_string<char, std::char_traits<char>, std::allocator<char> > const, std::shared_ptr<spdlog::logger> >, true> const&)
FUNC 3a2e0 22 0 std::__detail::_Node_iterator<std::pair<std::__cxx11::basic_string<char, std::char_traits<char>, std::allocator<char> > const, std::shared_ptr<spdlog::logger> >, false, true>::operator++()
FUNC 3a302 37 0 std::__detail::_Node_iterator<std::pair<std::__cxx11::basic_string<char, std::char_traits<char>, std::allocator<char> > const, std::shared_ptr<spdlog::logger> >, false, true>::operator*() const
FUNC 3a339 12 0 std::remove_reference<std::function<void (std::__cxx11::basic_string<char, std::char_traits<char>, std::allocator<char> > const&)>&>::type&& std::move<std::function<void (std::__cxx11::basic_string<char, std::char_traits<char>, std::allocator<char> > const&)>&>(std::function<void (std::__cxx11::basic_string<char, std::char_traits<char>, std::allocator<char> > const&)>&)
FUNC 3a34c 7a 0 std::function<void (std::__cxx11::basic_string<char, std::char_traits<char>, std::allocator<char> > const&)>::operator=(std::function<void (std::__cxx11::basic_string<char, std::char_traits<char>, std::allocator<char> > const&)>&&)
FUNC 3a3c6 54 0 std::function<void (std::shared_ptr<spdlog::logger>)>::operator()(std::shared_ptr<spdlog::logger>) const
FUNC 3a41a 88 0 bool std::operator==<char, std::char_traits<char>, std::allocator<char> >(std::__cxx11::basic_string<char, std::char_traits<char>, std::allocator<char> > const&, std::__cxx11::basic_string<char, std::char_traits<char>, std::allocator<char> > const&)
FUNC 3a4a2 29 0 std::unordered_map<std::__cxx11::basic_string<char, std::char_traits<char>, std::allocator<char> >, std::shared_ptr<spdlog::logger>, std::hash<std::__cxx11::basic_string<char, std::char_traits<char>, std::allocator<char> > >, std::equal_to<std::__cxx11::basic_string<char, std::char_traits<char>, std::allocator<char> > >, std::allocator<std::pair<std::__cxx11::basic_string<char, std::char_traits<char>, std::allocator<char> > const, std::shared_ptr<spdlog::logger> > > >::erase(std::__cxx11::basic_string<char, std::char_traits<char>, std::allocator<char> > const&)
FUNC 3a4cc 61 0 std::__shared_ptr<spdlog::logger, (__gnu_cxx::_Lock_policy)2>::reset()
FUNC 3a52e 1f 0 std::unordered_map<std::__cxx11::basic_string<char, std::char_traits<char>, std::allocator<char> >, std::shared_ptr<spdlog::logger>, std::hash<std::__cxx11::basic_string<char, std::char_traits<char>, std::allocator<char> > >, std::equal_to<std::__cxx11::basic_string<char, std::char_traits<char>, std::allocator<char> > >, std::allocator<std::pair<std::__cxx11::basic_string<char, std::char_traits<char>, std::allocator<char> > const, std::shared_ptr<spdlog::logger> > > >::clear()
FUNC 3a54e 3a 0 std::unique_ptr<spdlog::details::periodic_worker, std::default_delete<spdlog::details::periodic_worker> >::reset(spdlog::details::periodic_worker*)
FUNC 3a588 61 0 std::__shared_ptr<spdlog::details::thread_pool, (__gnu_cxx::_Lock_policy)2>::reset()
FUNC 3a5e9 12 0 std::remove_reference<std::unordered_map<std::__cxx11::basic_string<char, std::char_traits<char>, std::allocator<char> >, spdlog::level::level_enum, std::hash<std::__cxx11::basic_string<char, std::char_traits<char>, std::allocator<char> > >, std::equal_to<std::__cxx11::basic_string<char, std::char_traits<char>, std::allocator<char> > >, std::allocator<std::pair<std::__cxx11::basic_string<char, std::char_traits<char>, std::allocator<char> > const, spdlog::level::level_enum> > >&>::type&& std::move<std::unordered_map<std::__cxx11::basic_string<char, std::char_traits<char>, std::allocator<char> >, spdlog::level::level_enum, std::hash<std::__cxx11::basic_string<char, std::char_traits<char>, std::allocator<char> > >, std::equal_to<std::__cxx11::basic_string<char, std::char_traits<char>, std::allocator<char> > >, std::allocator<std::pair<std::__cxx11::basic_string<char, std::char_traits<char>, std::allocator<char> > const, spdlog::level::level_enum> > >&>(std::unordered_map<std::__cxx11::basic_string<char, std::char_traits<char>, std::allocator<char> >, spdlog::level::level_enum, std::hash<std::__cxx11::basic_string<char, std::char_traits<char>, std::allocator<char> > >, std::equal_to<std::__cxx11::basic_string<char, std::char_traits<char>, std::allocator<char> > >, std::allocator<std::pair<std::__cxx11::basic_string<char, std::char_traits<char>, std::allocator<char> > const, spdlog::level::level_enum> > >&)
FUNC 3a5fc 3c 0 std::_Hashtable<std::__cxx11::basic_string<char, std::char_traits<char>, std::allocator<char> >, std::pair<std::__cxx11::basic_string<char, std::char_traits<char>, std::allocator<char> > const, spdlog::level::level_enum>, std::allocator<std::pair<std::__cxx11::basic_string<char, std::char_traits<char>, std::allocator<char> > const, spdlog::level::level_enum> >, std::__detail::_Select1st, std::equal_to<std::__cxx11::basic_string<char, std::char_traits<char>, std::allocator<char> > >, std::hash<std::__cxx11::basic_string<char, std::char_traits<char>, std::allocator<char> > >, std::__detail::_Mod_range_hashing, std::__detail::_Default_ranged_hash, std::__detail::_Prime_rehash_policy, std::__detail::_Hashtable_traits<true, false, true> >::operator=(std::_Hashtable<std::__cxx11::basic_string<char, std::char_traits<char>, std::allocator<char> >, std::pair<std::__cxx11::basic_string<char, std::char_traits<char>, std::allocator<char> > const, spdlog::level::level_enum>, std::allocator<std::pair<std::__cxx11::basic_string<char, std::char_traits<char>, std::allocator<char> > const, spdlog::level::level_enum> >, std::__detail::_Select1st, std::equal_to<std::__cxx11::basic_string<char, std::char_traits<char>, std::allocator<char> > >, std::hash<std::__cxx11::basic_string<char, std::char_traits<char>, std::allocator<char> > >, std::__detail::_Mod_range_hashing, std::__detail::_Default_ranged_hash, std::__detail::_Prime_rehash_policy, std::__detail::_Hashtable_traits<true, false, true> >&&)
FUNC 3a638 eb 0 std::__cxx11::basic_string<char, std::char_traits<char>, std::allocator<char> > std::operator+<char, std::char_traits<char>, std::allocator<char> >(char const*, std::__cxx11::basic_string<char, std::char_traits<char>, std::allocator<char> > const&)
FUNC 3a724 167 0 std::vector<std::shared_ptr<spdlog::sinks::sink>, std::allocator<std::shared_ptr<spdlog::sinks::sink> > >::vector(std::vector<std::shared_ptr<spdlog::sinks::sink>, std::allocator<std::shared_ptr<spdlog::sinks::sink> > > const&)
FUNC 3a88b 12 0 std::remove_reference<std::vector<std::shared_ptr<spdlog::sinks::sink>, std::allocator<std::shared_ptr<spdlog::sinks::sink> > >&>::type&& std::move<std::vector<std::shared_ptr<spdlog::sinks::sink>, std::allocator<std::shared_ptr<spdlog::sinks::sink> > >&>(std::vector<std::shared_ptr<spdlog::sinks::sink>, std::allocator<std::shared_ptr<spdlog::sinks::sink> > >&)
FUNC 3a89d 12 0 std::remove_reference<spdlog::details::backtracer&>::type&& std::move<spdlog::details::backtracer&>(spdlog::details::backtracer&)
FUNC 3a8b0 61 0 std::_Vector_base<std::shared_ptr<spdlog::sinks::sink>, std::allocator<std::shared_ptr<spdlog::sinks::sink> > >::_Vector_impl::_Vector_impl(std::_Vector_base<std::shared_ptr<spdlog::sinks::sink>, std::allocator<std::shared_ptr<spdlog::sinks::sink> > >::_Vector_impl&&)
FUNC 3a912 91 0 std::function<void (std::__cxx11::basic_string<char, std::char_traits<char>, std::allocator<char> > const&)>::function(std::function<void (std::__cxx11::basic_string<char, std::char_traits<char>, std::allocator<char> > const&)>&&)
FUNC 3a9a4 aa 0 std::vector<std::shared_ptr<spdlog::sinks::sink>, std::allocator<std::shared_ptr<spdlog::sinks::sink> > >::swap(std::vector<std::shared_ptr<spdlog::sinks::sink>, std::allocator<std::shared_ptr<spdlog::sinks::sink> > >&)
FUNC 3aa4e 60 0 std::function<void (std::__cxx11::basic_string<char, std::char_traits<char>, std::allocator<char> > const&)>::swap(std::function<void (std::__cxx11::basic_string<char, std::char_traits<char>, std::allocator<char> > const&)>&)
FUNC 3aaae 158 0 std::enable_if<std::__and_<std::__not_<std::__is_tuple_like<spdlog::details::backtracer> >, std::is_move_constructible<spdlog::details::backtracer>, std::is_move_assignable<spdlog::details::backtracer> >::value, void>::type std::swap<spdlog::details::backtracer>(spdlog::details::backtracer&, spdlog::details::backtracer&)
FUNC 3ac06 3f 0 bool __gnu_cxx::operator==<std::shared_ptr<spdlog::sinks::sink>*, std::vector<std::shared_ptr<spdlog::sinks::sink>, std::allocator<std::shared_ptr<spdlog::sinks::sink> > > >(__gnu_cxx::__normal_iterator<std::shared_ptr<spdlog::sinks::sink>*, std::vector<std::shared_ptr<spdlog::sinks::sink>, std::allocator<std::shared_ptr<spdlog::sinks::sink> > > > const&, __gnu_cxx::__normal_iterator<std::shared_ptr<spdlog::sinks::sink>*, std::vector<std::shared_ptr<spdlog::sinks::sink>, std::allocator<std::shared_ptr<spdlog::sinks::sink> > > > const&)
FUNC 3ac46 1e 0 std::__shared_ptr_access<spdlog::sinks::sink, (__gnu_cxx::_Lock_policy)2, false, false>::operator->() const
FUNC 3ac64 38 0 std::_Tuple_impl<0ul, spdlog::formatter*, std::default_delete<spdlog::formatter> >::_Tuple_impl(std::_Tuple_impl<0ul, spdlog::formatter*, std::default_delete<spdlog::formatter> >&&)
FUNC 3ac9c 2a 0 std::tuple<spdlog::formatter*, std::default_delete<spdlog::formatter> >::tuple(std::tuple<spdlog::formatter*, std::default_delete<spdlog::formatter> >&&)
FUNC 3acc6 4a 0 std::__uniq_ptr_impl<spdlog::formatter, std::default_delete<spdlog::formatter> >::__uniq_ptr_impl(std::__uniq_ptr_impl<spdlog::formatter, std::default_delete<spdlog::formatter> >&&)
FUNC 3ad10 1f3 0 std::__detail::_MakeUniq<spdlog::pattern_formatter>::__single_object std::make_unique<spdlog::pattern_formatter, std::__cxx11::basic_string<char, std::char_traits<char>, std::allocator<char> >, spdlog::pattern_time_type&>(std::__cxx11::basic_string<char, std::char_traits<char>, std::allocator<char> >&&, spdlog::pattern_time_type&)
FUNC 3af04 68 0 std::unique_ptr<spdlog::pattern_formatter, std::default_delete<spdlog::pattern_formatter> >::~unique_ptr()
FUNC 3af6c 12 0 std::remove_reference<std::unique_ptr<spdlog::pattern_formatter, std::default_delete<spdlog::pattern_formatter> >&>::type&& std::move<std::unique_ptr<spdlog::pattern_formatter, std::default_delete<spdlog::pattern_formatter> >&>(std::unique_ptr<spdlog::pattern_formatter, std::default_delete<spdlog::pattern_formatter> >&)
FUNC 3af7e 32 0 std::__uniq_ptr_data<spdlog::formatter, std::default_delete<spdlog::formatter>, true, true>::__uniq_ptr_impl<std::default_delete<spdlog::pattern_formatter> >(spdlog::formatter*, std::default_delete<spdlog::pattern_formatter>&&)
FUNC 3afb0 56 0 std::unique_ptr<spdlog::formatter, std::default_delete<spdlog::formatter> >::unique_ptr<spdlog::pattern_formatter, std::default_delete<spdlog::pattern_formatter>, void>(std::unique_ptr<spdlog::pattern_formatter, std::default_delete<spdlog::pattern_formatter> >&&)
FUNC 3b006 62 0 std::shared_ptr<std::enable_if<!std::is_array<spdlog::logger>::value, spdlog::logger>::type> std::make_shared<spdlog::logger, spdlog::logger&>(spdlog::logger&)
FUNC 3b068 54 0 std::function<void (std::__cxx11::basic_string<char, std::char_traits<char>, std::allocator<char> > const&)>::operator()(std::__cxx11::basic_string<char, std::char_traits<char>, std::allocator<char> > const&) const
FUNC 3b0bc 23 0 std::chrono::duration<long, std::ratio<1l, 1l> >::duration<int, void>(int const&)
FUNC 3b0df 7d 0 bool std::chrono::operator< <long, std::ratio<1l, 1000000000l>, long, std::ratio<1l, 1l> >(std::chrono::duration<long, std::ratio<1l, 1000000000l> > const&, std::chrono::duration<long, std::ratio<1l, 1l> > const&)
FUNC 3b15c 4c 0 std::back_insert_iterator<fmt::v11::basic_memory_buffer<char, 250ul, fmt::v11::detail::allocator<char> > > std::back_inserter<fmt::v11::basic_memory_buffer<char, 250ul, fmt::v11::detail::allocator<char> > >(fmt::v11::basic_memory_buffer<char, 250ul, fmt::v11::detail::allocator<char> >&)
FUNC 3b1a8 70 0 fmt::v11::basic_string_view<char> fmt::v11::detail::compile_string_to_view<char, 6ul>(char const (&) [6ul])
FUNC 3b218 41 0 std::_Rb_tree<std::__cxx11::basic_string<char, std::char_traits<char>, std::allocator<char> >, std::pair<std::__cxx11::basic_string<char, std::char_traits<char>, std::allocator<char> > const, std::__cxx11::basic_string<char, std::char_traits<char>, std::allocator<char> > >, std::_Select1st<std::pair<std::__cxx11::basic_string<char, std::char_traits<char>, std::allocator<char> > const, std::__cxx11::basic_string<char, std::char_traits<char>, std::allocator<char> > > >, std::less<std::__cxx11::basic_string<char, std::char_traits<char>, std::allocator<char> > >, std::allocator<std::pair<std::__cxx11::basic_string<char, std::char_traits<char>, std::allocator<char> > const, std::__cxx11::basic_string<char, std::char_traits<char>, std::allocator<char> > > > >::_Rb_tree_impl<std::less<std::__cxx11::basic_string<char, std::char_traits<char>, std::allocator<char> > >, true>::_Rb_tree_impl()
FUNC 3b25a 2a 0 fmt::v11::basic_memory_buffer<char, 250ul, fmt::v11::detail::allocator<char> >::resize(unsigned long)
FUNC 3b284 4c 0 spdlog::details::mdc_formatter<spdlog::details::null_scoped_padder>::mdc_formatter(spdlog::details::padding_info)
FUNC 3b2d0 2c 0 bool std::chrono::operator!=<long, std::ratio<1l, 1l>, long, std::ratio<1l, 1l> >(std::chrono::duration<long, std::ratio<1l, 1l> > const&, std::chrono::duration<long, std::ratio<1l, 1l> > const&)
FUNC 3b2fc 90 0 void spdlog::details::fmt_helper::append_int<int>(int, fmt::v11::basic_memory_buffer<char, 250ul, fmt::v11::detail::allocator<char> >&)
FUNC 3b38c 8 0 fmt::v11::detail::buffer<char>::begin()
FUNC 3b394 c 0 fmt::v11::detail::buffer<char>::end()
FUNC 3b3a0 88 0 std::chrono::duration<long, std::ratio<1l, 1000l> > spdlog::details::fmt_helper::time_fraction<std::chrono::duration<long, std::ratio<1l, 1000l> > >(std::chrono::time_point<std::chrono::_V2::system_clock, std::chrono::duration<long, std::ratio<1l, 1000000000l> > >)
FUNC 3b428 10d 0 void spdlog::details::fmt_helper::pad3<unsigned int>(unsigned int, fmt::v11::basic_memory_buffer<char, 250ul, fmt::v11::detail::allocator<char> >&)
FUNC 3b535 65 0 spdlog::details::short_filename_formatter<spdlog::details::null_scoped_padder>::basename(char const*)
FUNC 3b59a 1e 0 std::map<std::__cxx11::basic_string<char, std::char_traits<char>, std::allocator<char> >, std::__cxx11::basic_string<char, std::char_traits<char>, std::allocator<char> >, std::less<std::__cxx11::basic_string<char, std::char_traits<char>, std::allocator<char> > >, std::allocator<std::pair<std::__cxx11::basic_string<char, std::char_traits<char>, std::allocator<char> > const, std::__cxx11::basic_string<char, std::char_traits<char>, std::allocator<char> > > > >::empty() const
FUNC 3b5b8 2dc 0 spdlog::details::mdc_formatter<spdlog::details::null_scoped_padder>::format_mdc(std::map<std::__cxx11::basic_string<char, std::char_traits<char>, std::allocator<char> >, std::__cxx11::basic_string<char, std::char_traits<char>, std::allocator<char> >, std::less<std::__cxx11::basic_string<char, std::char_traits<char>, std::allocator<char> > >, std::allocator<std::pair<std::__cxx11::basic_string<char, std::char_traits<char>, std::allocator<char> > const, std::__cxx11::basic_string<char, std::char_traits<char>, std::allocator<char> > > > > const&, fmt::v11::basic_memory_buffer<char, 250ul, fmt::v11::detail::allocator<char> >&)
FUNC 3b894 12 0 std::remove_reference<std::unordered_map<char, std::unique_ptr<spdlog::custom_flag_formatter, std::default_delete<spdlog::custom_flag_formatter> >, std::hash<char>, std::equal_to<char>, std::allocator<std::pair<char const, std::unique_ptr<spdlog::custom_flag_formatter, std::default_delete<spdlog::custom_flag_formatter> > > > >&>::type&& std::move<std::unordered_map<char, std::unique_ptr<spdlog::custom_flag_formatter, std::default_delete<spdlog::custom_flag_formatter> >, std::hash<char>, std::equal_to<char>, std::allocator<std::pair<char const, std::unique_ptr<spdlog::custom_flag_formatter, std::default_delete<spdlog::custom_flag_formatter> > > > >&>(std::unordered_map<char, std::unique_ptr<spdlog::custom_flag_formatter, std::default_delete<spdlog::custom_flag_formatter> >, std::hash<char>, std::equal_to<char>, std::allocator<std::pair<char const, std::unique_ptr<spdlog::custom_flag_formatter, std::default_delete<spdlog::custom_flag_formatter> > > > >&)
FUNC 3b8a6 31 0 std::_Vector_base<std::unique_ptr<spdlog::details::flag_formatter, std::default_delete<spdlog::details::flag_formatter> >, std::allocator<std::unique_ptr<spdlog::details::flag_formatter, std::default_delete<spdlog::details::flag_formatter> > > >::_Vector_impl::_Vector_impl()
FUNC 3b8d8 51 0 std::_Vector_base<std::unique_ptr<spdlog::details::flag_formatter, std::default_delete<spdlog::details::flag_formatter> >, std::allocator<std::unique_ptr<spdlog::details::flag_formatter, std::default_delete<spdlog::details::flag_formatter> > > >::~_Vector_base()
FUNC 3b92a 5a 0 std::vector<std::unique_ptr<spdlog::details::flag_formatter, std::default_delete<spdlog::details::flag_formatter> >, std::allocator<std::unique_ptr<spdlog::details::flag_formatter, std::default_delete<spdlog::details::flag_formatter> > > >::~vector()
FUNC 3b984 54 0 std::_Hashtable<char, std::pair<char const, std::unique_ptr<spdlog::custom_flag_formatter, std::default_delete<spdlog::custom_flag_formatter> > >, std::allocator<std::pair<char const, std::unique_ptr<spdlog::custom_flag_formatter, std::default_delete<spdlog::custom_flag_formatter> > > >, std::__detail::_Select1st, std::equal_to<char>, std::hash<char>, std::__detail::_Mod_range_hashing, std::__detail::_Default_ranged_hash, std::__detail::_Prime_rehash_policy, std::__detail::_Hashtable_traits<false, false, true> >::_Hashtable(std::_Hashtable<char, std::pair<char const, std::unique_ptr<spdlog::custom_flag_formatter, std::default_delete<spdlog::custom_flag_formatter> > >, std::allocator<std::pair<char const, std::unique_ptr<spdlog::custom_flag_formatter, std::default_delete<spdlog::custom_flag_formatter> > > >, std::__detail::_Select1st, std::equal_to<char>, std::hash<char>, std::__detail::_Mod_range_hashing, std::__detail::_Default_ranged_hash, std::__detail::_Prime_rehash_policy, std::__detail::_Hashtable_traits<false, false, true> >&&)
FUNC 3b9d8 91 0 std::__detail::_MakeUniq<spdlog::details::full_formatter>::__single_object std::make_unique<spdlog::details::full_formatter, spdlog::details::padding_info>(spdlog::details::padding_info&&)
FUNC 3ba6a 68 0 std::unique_ptr<spdlog::details::full_formatter, std::default_delete<spdlog::details::full_formatter> >::~unique_ptr()
FUNC 3bad2 32 0 std::__uniq_ptr_data<spdlog::details::flag_formatter, std::default_delete<spdlog::details::flag_formatter>, true, true>::__uniq_ptr_impl<std::default_delete<spdlog::details::full_formatter> >(spdlog::details::flag_formatter*, std::default_delete<spdlog::details::full_formatter>&&)
FUNC 3bb04 56 0 std::unique_ptr<spdlog::details::flag_formatter, std::default_delete<spdlog::details::flag_formatter> >::unique_ptr<spdlog::details::full_formatter, std::default_delete<spdlog::details::full_formatter>, void>(std::unique_ptr<spdlog::details::full_formatter, std::default_delete<spdlog::details::full_formatter> >&&)
FUNC 3bb5a 68 0 std::unique_ptr<spdlog::details::flag_formatter, std::default_delete<spdlog::details::flag_formatter> >::~unique_ptr()
FUNC 3bbc2 35 0 std::vector<std::unique_ptr<spdlog::details::flag_formatter, std::default_delete<spdlog::details::flag_formatter> >, std::allocator<std::unique_ptr<spdlog::details::flag_formatter, std::default_delete<spdlog::details::flag_formatter> > > >::push_back(std::unique_ptr<spdlog::details::flag_formatter, std::default_delete<spdlog::details::flag_formatter> >&&)
FUNC 3bbf8 1e 0 std::unordered_map<char, std::unique_ptr<spdlog::custom_flag_formatter, std::default_delete<spdlog::custom_flag_formatter> >, std::hash<char>, std::equal_to<char>, std::allocator<std::pair<char const, std::unique_ptr<spdlog::custom_flag_formatter, std::default_delete<spdlog::custom_flag_formatter> > > > >::begin() const
FUNC 3bc16 1e 0 std::unordered_map<char, std::unique_ptr<spdlog::custom_flag_formatter, std::default_delete<spdlog::custom_flag_formatter> >, std::hash<char>, std::equal_to<char>, std::allocator<std::pair<char const, std::unique_ptr<spdlog::custom_flag_formatter, std::default_delete<spdlog::custom_flag_formatter> > > > >::end() const
FUNC 3bc34 26 0 std::__detail::operator!=(std::__detail::_Node_iterator_base<std::pair<char const, std::unique_ptr<spdlog::custom_flag_formatter, std::default_delete<spdlog::custom_flag_formatter> > >, false> const&, std::__detail::_Node_iterator_base<std::pair<char const, std::unique_ptr<spdlog::custom_flag_formatter, std::default_delete<spdlog::custom_flag_formatter> > >, false> const&)
FUNC 3bc5a 22 0 std::__detail::_Node_const_iterator<std::pair<char const, std::unique_ptr<spdlog::custom_flag_formatter, std::default_delete<spdlog::custom_flag_formatter> > >, false, false>::operator++()
FUNC 3bc7c 37 0 std::__detail::_Node_const_iterator<std::pair<char const, std::unique_ptr<spdlog::custom_flag_formatter, std::default_delete<spdlog::custom_flag_formatter> > >, false, false>::operator*() const
FUNC 3bcb4 29 0 std::unordered_map<char, std::unique_ptr<spdlog::custom_flag_formatter, std::default_delete<spdlog::custom_flag_formatter> >, std::hash<char>, std::equal_to<char>, std::allocator<std::pair<char const, std::unique_ptr<spdlog::custom_flag_formatter, std::default_delete<spdlog::custom_flag_formatter> > > > >::operator[](char const&)
FUNC 3bcde 1e 0 std::unique_ptr<spdlog::custom_flag_formatter, std::default_delete<spdlog::custom_flag_formatter> >::operator->() const
FUNC 3bcfc 68 0 std::unique_ptr<spdlog::custom_flag_formatter, std::default_delete<spdlog::custom_flag_formatter> >::~unique_ptr()
FUNC 3bd64 58 0 std::__uniq_ptr_impl<spdlog::custom_flag_formatter, std::default_delete<spdlog::custom_flag_formatter> >::operator=(std::__uniq_ptr_impl<spdlog::custom_flag_formatter, std::default_delete<spdlog::custom_flag_formatter> >&&)
FUNC 3bdbc 1d4 0 std::__detail::_MakeUniq<spdlog::pattern_formatter>::__single_object std::make_unique<spdlog::pattern_formatter, std::__cxx11::basic_string<char, std::char_traits<char>, std::allocator<char> > const&, spdlog::pattern_time_type const&, std::__cxx11::basic_string<char, std::char_traits<char>, std::allocator<char> > const&, std::unordered_map<char, std::unique_ptr<spdlog::custom_flag_formatter, std::default_delete<spdlog::custom_flag_formatter> >, std::hash<char>, std::equal_to<char>, std::allocator<std::pair<char const, std::unique_ptr<spdlog::custom_flag_formatter, std::default_delete<spdlog::custom_flag_formatter> > > > > >(std::__cxx11::basic_string<char, std::char_traits<char>, std::allocator<char> > const&, spdlog::pattern_time_type const&, std::__cxx11::basic_string<char, std::char_traits<char>, std::allocator<char> > const&, std::unordered_map<char, std::unique_ptr<spdlog::custom_flag_formatter, std::default_delete<spdlog::custom_flag_formatter> >, std::hash<char>, std::equal_to<char>, std::allocator<std::pair<char const, std::unique_ptr<spdlog::custom_flag_formatter, std::default_delete<spdlog::custom_flag_formatter> > > > >&&)
FUNC 3bf90 1e 0 std::unique_ptr<spdlog::pattern_formatter, std::default_delete<spdlog::pattern_formatter> >::operator->() const
FUNC 3bfae 4c 0 std::vector<std::unique_ptr<spdlog::details::flag_formatter, std::default_delete<spdlog::details::flag_formatter> >, std::allocator<std::unique_ptr<spdlog::details::flag_formatter, std::default_delete<spdlog::details::flag_formatter> > > >::begin()
FUNC 3bffa 50 0 std::vector<std::unique_ptr<spdlog::details::flag_formatter, std::default_delete<spdlog::details::flag_formatter> >, std::allocator<std::unique_ptr<spdlog::details::flag_formatter, std::default_delete<spdlog::details::flag_formatter> > > >::end()
FUNC 3c04a 3f 0 bool __gnu_cxx::operator!=<std::unique_ptr<spdlog::details::flag_formatter, std::default_delete<spdlog::details::flag_formatter> >*, std::vector<std::unique_ptr<spdlog::details::flag_formatter, std::default_delete<spdlog::details::flag_formatter> >, std::allocator<std::unique_ptr<spdlog::details::flag_formatter, std::default_delete<spdlog::details::flag_formatter> > > > >(__gnu_cxx::__normal_iterator<std::unique_ptr<spdlog::details::flag_formatter, std::default_delete<spdlog::details::flag_formatter> >*, std::vector<std::unique_ptr<spdlog::details::flag_formatter, std::default_delete<spdlog::details::flag_formatter> >, std::allocator<std::unique_ptr<spdlog::details::flag_formatter, std::default_delete<spdlog::details::flag_formatter> > > > > const&, __gnu_cxx::__normal_iterator<std::unique_ptr<spdlog::details::flag_formatter, std::default_delete<spdlog::details::flag_formatter> >*, std::vector<std::unique_ptr<spdlog::details::flag_formatter, std::default_delete<spdlog::details::flag_formatter> >, std::allocator<std::unique_ptr<spdlog::details::flag_formatter, std::default_delete<spdlog::details::flag_formatter> > > > > const&)
FUNC 3c08a 24 0 __gnu_cxx::__normal_iterator<std::unique_ptr<spdlog::details::flag_formatter, std::default_delete<spdlog::details::flag_formatter> >*, std::vector<std::unique_ptr<spdlog::details::flag_formatter, std::default_delete<spdlog::details::flag_formatter> >, std::allocator<std::unique_ptr<spdlog::details::flag_formatter, std::default_delete<spdlog::details::flag_formatter> > > > >::operator++()
FUNC 3c0ae 15 0 __gnu_cxx::__normal_iterator<std::unique_ptr<spdlog::details::flag_formatter, std::default_delete<spdlog::details::flag_formatter> >*, std::vector<std::unique_ptr<spdlog::details::flag_formatter, std::default_delete<spdlog::details::flag_formatter> >, std::allocator<std::unique_ptr<spdlog::details::flag_formatter, std::default_delete<spdlog::details::flag_formatter> > > > >::operator*() const
FUNC 3c0c4 1e 0 std::unique_ptr<spdlog::details::flag_formatter, std::default_delete<spdlog::details::flag_formatter> >::operator->() const
FUNC 3c0e2 3f 0 bool __gnu_cxx::operator==<char const*, std::__cxx11::basic_string<char, std::char_traits<char>, std::allocator<char> > >(__gnu_cxx::__normal_iterator<char const*, std::__cxx11::basic_string<char, std::char_traits<char>, std::allocator<char> > > const&, __gnu_cxx::__normal_iterator<char const*, std::__cxx11::basic_string<char, std::char_traits<char>, std::allocator<char> > > const&)
FUNC 3c122 15 0 __gnu_cxx::__normal_iterator<char const*, std::__cxx11::basic_string<char, std::char_traits<char>, std::allocator<char> > >::operator*() const
FUNC 3c138 24 0 __gnu_cxx::__normal_iterator<char const*, std::__cxx11::basic_string<char, std::char_traits<char>, std::allocator<char> > >::operator++()
FUNC 3c15c 3f 0 bool __gnu_cxx::operator!=<char const*, std::__cxx11::basic_string<char, std::char_traits<char>, std::allocator<char> > >(__gnu_cxx::__normal_iterator<char const*, std::__cxx11::basic_string<char, std::char_traits<char>, std::allocator<char> > > const&, __gnu_cxx::__normal_iterator<char const*, std::__cxx11::basic_string<char, std::char_traits<char>, std::allocator<char> > > const&)
FUNC 3c19c 68 0 std::unique_ptr<spdlog::details::aggregate_formatter, std::default_delete<spdlog::details::aggregate_formatter> >::~unique_ptr()
FUNC 3c204 29 0 std::vector<std::unique_ptr<spdlog::details::flag_formatter, std::default_delete<spdlog::details::flag_formatter> >, std::allocator<std::unique_ptr<spdlog::details::flag_formatter, std::default_delete<spdlog::details::flag_formatter> > > >::clear()
FUNC 3c22e 24 0 std::unique_ptr<spdlog::details::aggregate_formatter, std::default_delete<spdlog::details::aggregate_formatter> >::operator bool() const
FUNC 3c252 12 0 std::remove_reference<std::unique_ptr<spdlog::details::aggregate_formatter, std::default_delete<spdlog::details::aggregate_formatter> >&>::type&& std::move<std::unique_ptr<spdlog::details::aggregate_formatter, std::default_delete<spdlog::details::aggregate_formatter> >&>(std::unique_ptr<spdlog::details::aggregate_formatter, std::default_delete<spdlog::details::aggregate_formatter> >&)
FUNC 3c264 32 0 std::__uniq_ptr_data<spdlog::details::flag_formatter, std::default_delete<spdlog::details::flag_formatter>, true, true>::__uniq_ptr_impl<std::default_delete<spdlog::details::aggregate_formatter> >(spdlog::details::flag_formatter*, std::default_delete<spdlog::details::aggregate_formatter>&&)
FUNC 3c296 56 0 std::unique_ptr<spdlog::details::flag_formatter, std::default_delete<spdlog::details::flag_formatter> >::unique_ptr<spdlog::details::aggregate_formatter, std::default_delete<spdlog::details::aggregate_formatter>, void>(std::unique_ptr<spdlog::details::aggregate_formatter, std::default_delete<spdlog::details::aggregate_formatter> >&&)
FUNC 3c2ec 1e44 0 void spdlog::pattern_formatter::handle_flag_<spdlog::details::scoped_padder>(char, spdlog::details::padding_info)
FUNC 3e130 1e44 0 void spdlog::pattern_formatter::handle_flag_<spdlog::details::null_scoped_padder>(char, spdlog::details::padding_info)
FUNC 3ff74 3d 0 spdlog::details::aggregate_formatter::aggregate_formatter()
FUNC 3ffb1 53 0 std::__detail::_MakeUniq<spdlog::details::aggregate_formatter>::__single_object std::make_unique<spdlog::details::aggregate_formatter>()
FUNC 40004 58 0 std::__uniq_ptr_impl<spdlog::details::aggregate_formatter, std::default_delete<spdlog::details::aggregate_formatter> >::operator=(std::__uniq_ptr_impl<spdlog::details::aggregate_formatter, std::default_delete<spdlog::details::aggregate_formatter> >&&)
FUNC 4005c 1e 0 std::unique_ptr<spdlog::details::aggregate_formatter, std::default_delete<spdlog::details::aggregate_formatter> >::operator->() const
FUNC 4007a 8e 0 std::function<void (std::__cxx11::basic_string<char, std::char_traits<char>, std::allocator<char> > const&)>::function<void (*&)(std::__cxx11::basic_string<char, std::char_traits<char>, std::allocator<char> > const&), void>(void (*&)(std::__cxx11::basic_string<char, std::char_traits<char>, std::allocator<char> > const&))
FUNC 40108 36 0 spdlog::sinks::sink::sink()
FUNC 4013e 2c 0 fmt::v11::operator==(fmt::v11::basic_string_view<char>, fmt::v11::basic_string_view<char>)
FUNC 4016a 17 0 fmt::v11::detail::buffer<char>::try_reserve(unsigned long)
FUNC 40181 228 0 char* fmt::v11::detail::do_format_decimal<char, unsigned int>(char*, unsigned int, int)
FUNC 403a9 25e 0 char* fmt::v11::detail::do_format_decimal<char, unsigned long>(char*, unsigned long, int)
FUNC 40607 4c 0 __gnu_cxx::__ops::_Iter_equals_val<std::__cxx11::basic_string<char, std::char_traits<char>, std::allocator<char> > const> __gnu_cxx::__ops::__iter_equals_val<std::__cxx11::basic_string<char, std::char_traits<char>, std::allocator<char> > const>(std::__cxx11::basic_string<char, std::char_traits<char>, std::allocator<char> > const&)
FUNC 40653 32 0 fmt::v11::basic_string_view<char> const* std::__find_if<fmt::v11::basic_string_view<char> const*, __gnu_cxx::__ops::_Iter_equals_val<std::__cxx11::basic_string<char, std::char_traits<char>, std::allocator<char> > const> >(fmt::v11::basic_string_view<char> const*, fmt::v11::basic_string_view<char> const*, __gnu_cxx::__ops::_Iter_equals_val<std::__cxx11::basic_string<char, std::char_traits<char>, std::allocator<char> > const>)
FUNC 40685 12 0 std::vector<spdlog::details::log_msg_buffer, std::allocator<spdlog::details::log_msg_buffer> > const* std::__addressof<std::vector<spdlog::details::log_msg_buffer, std::allocator<spdlog::details::log_msg_buffer> > const>(std::vector<spdlog::details::log_msg_buffer, std::allocator<spdlog::details::log_msg_buffer> > const&)
FUNC 40698 12 0 std::_Vector_base<spdlog::details::log_msg_buffer, std::allocator<spdlog::details::log_msg_buffer> >::_M_get_Tp_allocator() const
FUNC 406aa 29 0 std::vector<spdlog::details::log_msg_buffer, std::allocator<spdlog::details::log_msg_buffer> >::clear()
FUNC 406d4 32 0 std::vector<spdlog::details::log_msg_buffer, std::allocator<spdlog::details::log_msg_buffer> >::size() const
FUNC 40706 32 0 std::vector<spdlog::details::log_msg_buffer, std::allocator<spdlog::details::log_msg_buffer> >::capacity() const
FUNC 40738 4c 0 std::vector<spdlog::details::log_msg_buffer, std::allocator<spdlog::details::log_msg_buffer> >::begin() const
FUNC 40784 50 0 std::vector<spdlog::details::log_msg_buffer, std::allocator<spdlog::details::log_msg_buffer> >::end() const
FUNC 407d4 a2 0 spdlog::details::log_msg_buffer* std::vector<spdlog::details::log_msg_buffer, std::allocator<spdlog::details::log_msg_buffer> >::_M_allocate_and_copy<__gnu_cxx::__normal_iterator<spdlog::details::log_msg_buffer const*, std::vector<spdlog::details::log_msg_buffer, std::allocator<spdlog::details::log_msg_buffer> > > >(unsigned long, __gnu_cxx::__normal_iterator<spdlog::details::log_msg_buffer const*, std::vector<spdlog::details::log_msg_buffer, std::allocator<spdlog::details::log_msg_buffer> > >, __gnu_cxx::__normal_iterator<spdlog::details::log_msg_buffer const*, std::vector<spdlog::details::log_msg_buffer, std::allocator<spdlog::details::log_msg_buffer> > >)
FUNC 40876 4c 0 std::vector<spdlog::details::log_msg_buffer, std::allocator<spdlog::details::log_msg_buffer> >::begin()
FUNC 408c2 4f 0 __gnu_cxx::__normal_iterator<spdlog::details::log_msg_buffer*, std::vector<spdlog::details::log_msg_buffer, std::allocator<spdlog::details::log_msg_buffer> > > std::copy<__gnu_cxx::__normal_iterator<spdlog::details::log_msg_buffer const*, std::vector<spdlog::details::log_msg_buffer, std::allocator<spdlog::details::log_msg_buffer> > >, __gnu_cxx::__normal_iterator<spdlog::details::log_msg_buffer*, std::vector<spdlog::details::log_msg_buffer, std::allocator<spdlog::details::log_msg_buffer> > > >(__gnu_cxx::__normal_iterator<spdlog::details::log_msg_buffer const*, std::vector<spdlog::details::log_msg_buffer, std::allocator<spdlog::details::log_msg_buffer> > >, __gnu_cxx::__normal_iterator<spdlog::details::log_msg_buffer const*, std::vector<spdlog::details::log_msg_buffer, std::allocator<spdlog::details::log_msg_buffer> > >, __gnu_cxx::__normal_iterator<spdlog::details::log_msg_buffer*, std::vector<spdlog::details::log_msg_buffer, std::allocator<spdlog::details::log_msg_buffer> > >)
FUNC 40912 50 0 std::vector<spdlog::details::log_msg_buffer, std::allocator<spdlog::details::log_msg_buffer> >::end()
FUNC 40962 4f 0 spdlog::details::log_msg_buffer* std::copy<spdlog::details::log_msg_buffer*, spdlog::details::log_msg_buffer*>(spdlog::details::log_msg_buffer*, spdlog::details::log_msg_buffer*, spdlog::details::log_msg_buffer*)
FUNC 409b1 35 0 spdlog::details::log_msg_buffer* std::__uninitialized_copy_a<spdlog::details::log_msg_buffer*, spdlog::details::log_msg_buffer*, spdlog::details::log_msg_buffer>(spdlog::details::log_msg_buffer*, spdlog::details::log_msg_buffer*, spdlog::details::log_msg_buffer*, std::allocator<spdlog::details::log_msg_buffer>&)
FUNC 409e6 ae 0 spdlog::details::circular_q<spdlog::details::log_msg_buffer>::copy_moveable(spdlog::details::circular_q<spdlog::details::log_msg_buffer>&&)
FUNC 40a94 7e 0 std::vector<spdlog::details::log_msg_buffer, std::allocator<spdlog::details::log_msg_buffer> >::vector(unsigned long, std::allocator<spdlog::details::log_msg_buffer> const&)
FUNC 40b12 2d 0 std::vector<spdlog::details::log_msg_buffer, std::allocator<spdlog::details::log_msg_buffer> >::operator[](unsigned long)
FUNC 40b3f 12 0 std::remove_reference<spdlog::details::log_msg_buffer&>::type&& std::move<spdlog::details::log_msg_buffer&>(spdlog::details::log_msg_buffer&)
FUNC 40b51 12 0 spdlog::details::log_msg const& std::forward<spdlog::details::log_msg const&>(std::remove_reference<spdlog::details::log_msg const&>::type&)
FUNC 40b64 100 0 fmt::v11::basic_memory_buffer<char, 250ul, fmt::v11::detail::allocator<char> >::move(fmt::v11::basic_memory_buffer<char, 250ul, fmt::v11::detail::allocator<char> >&)
FUNC 40c64 51 0 std::chrono::duration<long, std::ratio<1l, 1000l> >::zero()
FUNC 40cb5 2c 0 bool std::chrono::operator<=<long, std::ratio<1l, 1000l>, long, std::ratio<1l, 1000l> >(std::chrono::duration<long, std::ratio<1l, 1000l> > const&, std::chrono::duration<long, std::ratio<1l, 1000l> > const&)
FUNC 40ce1 1e 0 std::enable_if<std::chrono::__is_duration<std::chrono::duration<long, std::ratio<1l, 1l> > >::value, std::chrono::duration<long, std::ratio<1l, 1l> > >::type std::chrono::duration_cast<std::chrono::duration<long, std::ratio<1l, 1l> >, long, std::ratio<1l, 1000l> >(std::chrono::duration<long, std::ratio<1l, 1000l> > const&)
FUNC 40cff 98 0 std::common_type<std::chrono::duration<long, std::ratio<1l, 1000l> >, std::chrono::duration<long, std::ratio<1l, 1l> > >::type std::chrono::operator-<long, std::ratio<1l, 1000l>, long, std::ratio<1l, 1l> >(std::chrono::duration<long, std::ratio<1l, 1000l> > const&, std::chrono::duration<long, std::ratio<1l, 1l> > const&)
FUNC 40d97 1e 0 std::enable_if<std::chrono::__is_duration<std::chrono::duration<long, std::ratio<1l, 1000000000l> > >::value, std::chrono::duration<long, std::ratio<1l, 1000000000l> > >::type std::chrono::duration_cast<std::chrono::duration<long, std::ratio<1l, 1000000000l> >, long, std::ratio<1l, 1000l> >(std::chrono::duration<long, std::ratio<1l, 1000l> > const&)
FUNC 40db6 12 0 std::array<char const*, 16ul>::data() const
FUNC 40dc8 16 0 std::initializer_list<std::shared_ptr<spdlog::sinks::sink> >::size() const
FUNC 40dde a5 0 std::vector<std::shared_ptr<spdlog::sinks::sink>, std::allocator<std::shared_ptr<spdlog::sinks::sink> > >::vector<std::shared_ptr<spdlog::sinks::sink> const*, void>(std::shared_ptr<spdlog::sinks::sink> const*, std::shared_ptr<spdlog::sinks::sink> const*, std::allocator<std::shared_ptr<spdlog::sinks::sink> > const&)
FUNC 40e84 f 0 std::__new_allocator<std::__detail::_Hash_node<std::pair<char const, std::unique_ptr<spdlog::custom_flag_formatter, std::default_delete<spdlog::custom_flag_formatter> > >, false> >::~__new_allocator()
FUNC 40e94 6d 0 std::_Hashtable<char, std::pair<char const, std::unique_ptr<spdlog::custom_flag_formatter, std::default_delete<spdlog::custom_flag_formatter> > >, std::allocator<std::pair<char const, std::unique_ptr<spdlog::custom_flag_formatter, std::default_delete<spdlog::custom_flag_formatter> > > >, std::__detail::_Select1st, std::equal_to<char>, std::hash<char>, std::__detail::_Mod_range_hashing, std::__detail::_Default_ranged_hash, std::__detail::_Prime_rehash_policy, std::__detail::_Hashtable_traits<false, false, true> >::clear()
FUNC 40f02 31 0 std::_Hashtable<char, std::pair<char const, std::unique_ptr<spdlog::custom_flag_formatter, std::default_delete<spdlog::custom_flag_formatter> > >, std::allocator<std::pair<char const, std::unique_ptr<spdlog::custom_flag_formatter, std::default_delete<spdlog::custom_flag_formatter> > > >, std::__detail::_Select1st, std::equal_to<char>, std::hash<char>, std::__detail::_Mod_range_hashing, std::__detail::_Default_ranged_hash, std::__detail::_Prime_rehash_policy, std::__detail::_Hashtable_traits<false, false, true> >::_M_deallocate_buckets()
FUNC 40f34 f 0 std::__new_allocator<std::__detail::_Hash_node<std::pair<std::__cxx11::basic_string<char, std::char_traits<char>, std::allocator<char> > const, std::shared_ptr<spdlog::logger> >, true> >::~__new_allocator()
FUNC 40f44 6d 0 std::_Hashtable<std::__cxx11::basic_string<char, std::char_traits<char>, std::allocator<char> >, std::pair<std::__cxx11::basic_string<char, std::char_traits<char>, std::allocator<char> > const, std::shared_ptr<spdlog::logger> >, std::allocator<std::pair<std::__cxx11::basic_string<char, std::char_traits<char>, std::allocator<char> > const, std::shared_ptr<spdlog::logger> > >, std::__detail::_Select1st, std::equal_to<std::__cxx11::basic_string<char, std::char_traits<char>, std::allocator<char> > >, std::hash<std::__cxx11::basic_string<char, std::char_traits<char>, std::allocator<char> > >, std::__detail::_Mod_range_hashing, std::__detail::_Default_ranged_hash, std::__detail::_Prime_rehash_policy, std::__detail::_Hashtable_traits<true, false, true> >::clear()
FUNC 40fb2 31 0 std::_Hashtable<std::__cxx11::basic_string<char, std::char_traits<char>, std::allocator<char> >, std::pair<std::__cxx11::basic_string<char, std::char_traits<char>, std::allocator<char> > const, std::shared_ptr<spdlog::logger> >, std::allocator<std::pair<std::__cxx11::basic_string<char, std::char_traits<char>, std::allocator<char> > const, std::shared_ptr<spdlog::logger> > >, std::__detail::_Select1st, std::equal_to<std::__cxx11::basic_string<char, std::char_traits<char>, std::allocator<char> > >, std::hash<std::__cxx11::basic_string<char, std::char_traits<char>, std::allocator<char> > >, std::__detail::_Mod_range_hashing, std::__detail::_Default_ranged_hash, std::__detail::_Prime_rehash_policy, std::__detail::_Hashtable_traits<true, false, true> >::_M_deallocate_buckets()
FUNC 40fe4 f 0 std::__new_allocator<std::__detail::_Hash_node<std::pair<std::__cxx11::basic_string<char, std::char_traits<char>, std::allocator<char> > const, spdlog::level::level_enum>, true> >::~__new_allocator()
FUNC 40ff4 6d 0 std::_Hashtable<std::__cxx11::basic_string<char, std::char_traits<char>, std::allocator<char> >, std::pair<std::__cxx11::basic_string<char, std::char_traits<char>, std::allocator<char> > const, spdlog::level::level_enum>, std::allocator<std::pair<std::__cxx11::basic_string<char, std::char_traits<char>, std::allocator<char> > const, spdlog::level::level_enum> >, std::__detail::_Select1st, std::equal_to<std::__cxx11::basic_string<char, std::char_traits<char>, std::allocator<char> > >, std::hash<std::__cxx11::basic_string<char, std::char_traits<char>, std::allocator<char> > >, std::__detail::_Mod_range_hashing, std::__detail::_Default_ranged_hash, std::__detail::_Prime_rehash_policy, std::__detail::_Hashtable_traits<true, false, true> >::clear()
FUNC 41062 31 0 std::_Hashtable<std::__cxx11::basic_string<char, std::char_traits<char>, std::allocator<char> >, std::pair<std::__cxx11::basic_string<char, std::char_traits<char>, std::allocator<char> > const, spdlog::level::level_enum>, std::allocator<std::pair<std::__cxx11::basic_string<char, std::char_traits<char>, std::allocator<char> > const, spdlog::level::level_enum> >, std::__detail::_Select1st, std::equal_to<std::__cxx11::basic_string<char, std::char_traits<char>, std::allocator<char> > >, std::hash<std::__cxx11::basic_string<char, std::char_traits<char>, std::allocator<char> > >, std::__detail::_Mod_range_hashing, std::__detail::_Default_ranged_hash, std::__detail::_Prime_rehash_policy, std::__detail::_Hashtable_traits<true, false, true> >::_M_deallocate_buckets()
FUNC 41094 3b 0 std::__uniq_ptr_impl<spdlog::formatter, std::default_delete<spdlog::formatter> >::__uniq_ptr_impl(spdlog::formatter*)
FUNC 410d0 2e 0 std::__shared_ptr<spdlog::details::thread_pool, (__gnu_cxx::_Lock_policy)2>::__shared_ptr()
FUNC 410fe 1f 0 std::tuple<spdlog::details::periodic_worker*, std::default_delete<spdlog::details::periodic_worker> >::tuple<true, true>()
FUNC 4111e 1e 0 std::__uniq_ptr_impl<spdlog::details::periodic_worker, std::default_delete<spdlog::details::periodic_worker> >::_M_ptr()
FUNC 4113c 1e 0 std::unique_ptr<spdlog::details::periodic_worker, std::default_delete<spdlog::details::periodic_worker> >::get_deleter()
FUNC 4115a 12 0 std::remove_reference<spdlog::details::periodic_worker*&>::type&& std::move<spdlog::details::periodic_worker*&>(spdlog::details::periodic_worker*&)
FUNC 4116c 3a 0 std::default_delete<spdlog::details::periodic_worker>::operator()(spdlog::details::periodic_worker*) const
FUNC 411a6 2e 0 std::__shared_ptr<spdlog::logger, (__gnu_cxx::_Lock_policy)2>::__shared_ptr()
FUNC 411d4 12 0 char const*& std::forward<char const*&>(std::remove_reference<char const*&>::type&)
FUNC 411e6 12 0 std::shared_ptr<spdlog::sinks::ansicolor_stdout_sink<spdlog::details::console_mutex> >&& std::forward<std::shared_ptr<spdlog::sinks::ansicolor_stdout_sink<spdlog::details::console_mutex> > >(std::remove_reference<std::shared_ptr<spdlog::sinks::ansicolor_stdout_sink<spdlog::details::console_mutex> > >::type&)
FUNC 411f8 5d 0 std::shared_ptr<spdlog::logger>::shared_ptr<std::allocator<void>, char const*&, std::shared_ptr<spdlog::sinks::ansicolor_stdout_sink<spdlog::details::console_mutex> > >(std::_Sp_alloc_shared_tag<std::allocator<void> >, char const*&, std::shared_ptr<spdlog::sinks::ansicolor_stdout_sink<spdlog::details::console_mutex> >&&)
FUNC 41256 185 0 std::__detail::_Map_base<std::__cxx11::basic_string<char, std::char_traits<char>, std::allocator<char> >, std::pair<std::__cxx11::basic_string<char, std::char_traits<char>, std::allocator<char> > const, std::shared_ptr<spdlog::logger> >, std::allocator<std::pair<std::__cxx11::basic_string<char, std::char_traits<char>, std::allocator<char> > const, std::shared_ptr<spdlog::logger> > >, std::__detail::_Select1st, std::equal_to<std::__cxx11::basic_string<char, std::char_traits<char>, std::allocator<char> > >, std::hash<std::__cxx11::basic_string<char, std::char_traits<char>, std::allocator<char> > >, std::__detail::_Mod_range_hashing, std::__detail::_Default_ranged_hash, std::__detail::_Prime_rehash_policy, std::__detail::_Hashtable_traits<true, false, true>, true>::operator[](std::__cxx11::basic_string<char, std::char_traits<char>, std::allocator<char> >&&)
FUNC 413dc 133 0 std::_Hashtable<std::__cxx11::basic_string<char, std::char_traits<char>, std::allocator<char> >, std::pair<std::__cxx11::basic_string<char, std::char_traits<char>, std::allocator<char> > const, spdlog::level::level_enum>, std::allocator<std::pair<std::__cxx11::basic_string<char, std::char_traits<char>, std::allocator<char> > const, spdlog::level::level_enum> >, std::__detail::_Select1st, std::equal_to<std::__cxx11::basic_string<char, std::char_traits<char>, std::allocator<char> > >, std::hash<std::__cxx11::basic_string<char, std::char_traits<char>, std::allocator<char> > >, std::__detail::_Mod_range_hashing, std::__detail::_Default_ranged_hash, std::__detail::_Prime_rehash_policy, std::__detail::_Hashtable_traits<true, false, true> >::find(std::__cxx11::basic_string<char, std::char_traits<char>, std::allocator<char> > const&)
FUNC 41510 4a 0 std::_Hashtable<std::__cxx11::basic_string<char, std::char_traits<char>, std::allocator<char> >, std::pair<std::__cxx11::basic_string<char, std::char_traits<char>, std::allocator<char> > const, spdlog::level::level_enum>, std::allocator<std::pair<std::__cxx11::basic_string<char, std::char_traits<char>, std::allocator<char> > const, spdlog::level::level_enum> >, std::__detail::_Select1st, std::equal_to<std::__cxx11::basic_string<char, std::char_traits<char>, std::allocator<char> > >, std::hash<std::__cxx11::basic_string<char, std::char_traits<char>, std::allocator<char> > >, std::__detail::_Mod_range_hashing, std::__detail::_Default_ranged_hash, std::__detail::_Prime_rehash_policy, std::__detail::_Hashtable_traits<true, false, true> >::end()
FUNC 4155a 133 0 std::_Hashtable<std::__cxx11::basic_string<char, std::char_traits<char>, std::allocator<char> >, std::pair<std::__cxx11::basic_string<char, std::char_traits<char>, std::allocator<char> > const, std::shared_ptr<spdlog::logger> >, std::allocator<std::pair<std::__cxx11::basic_string<char, std::char_traits<char>, std::allocator<char> > const, std::shared_ptr<spdlog::logger> > >, std::__detail::_Select1st, std::equal_to<std::__cxx11::basic_string<char, std::char_traits<char>, std::allocator<char> > >, std::hash<std::__cxx11::basic_string<char, std::char_traits<char>, std::allocator<char> > >, std::__detail::_Mod_range_hashing, std::__detail::_Default_ranged_hash, std::__detail::_Prime_rehash_policy, std::__detail::_Hashtable_traits<true, false, true> >::find(std::__cxx11::basic_string<char, std::char_traits<char>, std::allocator<char> > const&)
FUNC 4168e 4a 0 std::_Hashtable<std::__cxx11::basic_string<char, std::char_traits<char>, std::allocator<char> >, std::pair<std::__cxx11::basic_string<char, std::char_traits<char>, std::allocator<char> > const, std::shared_ptr<spdlog::logger> >, std::allocator<std::pair<std::__cxx11::basic_string<char, std::char_traits<char>, std::allocator<char> > const, std::shared_ptr<spdlog::logger> > >, std::__detail::_Select1st, std::equal_to<std::__cxx11::basic_string<char, std::char_traits<char>, std::allocator<char> > >, std::hash<std::__cxx11::basic_string<char, std::char_traits<char>, std::allocator<char> > >, std::__detail::_Mod_range_hashing, std::__detail::_Default_ranged_hash, std::__detail::_Prime_rehash_policy, std::__detail::_Hashtable_traits<true, false, true> >::end()
FUNC 416d8 17a 0 std::__detail::_Map_base<std::__cxx11::basic_string<char, std::char_traits<char>, std::allocator<char> >, std::pair<std::__cxx11::basic_string<char, std::char_traits<char>, std::allocator<char> > const, std::shared_ptr<spdlog::logger> >, std::allocator<std::pair<std::__cxx11::basic_string<char, std::char_traits<char>, std::allocator<char> > const, std::shared_ptr<spdlog::logger> > >, std::__detail::_Select1st, std::equal_to<std::__cxx11::basic_string<char, std::char_traits<char>, std::allocator<char> > >, std::hash<std::__cxx11::basic_string<char, std::char_traits<char>, std::allocator<char> > >, std::__detail::_Mod_range_hashing, std::__detail::_Default_ranged_hash, std::__detail::_Prime_rehash_policy, std::__detail::_Hashtable_traits<true, false, true>, true>::operator[](std::__cxx11::basic_string<char, std::char_traits<char>, std::allocator<char> > const&)
FUNC 41852 7a 0 std::__shared_ptr<spdlog::details::thread_pool, (__gnu_cxx::_Lock_policy)2>::operator=(std::__shared_ptr<spdlog::details::thread_pool, (__gnu_cxx::_Lock_policy)2>&&)
FUNC 418cc 67 0 std::__uniq_ptr_impl<spdlog::formatter, std::default_delete<spdlog::formatter> >::reset(spdlog::formatter*)
FUNC 41934 3c 0 std::__uniq_ptr_impl<spdlog::formatter, std::default_delete<spdlog::formatter> >::release()
FUNC 41970 12 0 std::default_delete<spdlog::formatter>&& std::forward<std::default_delete<spdlog::formatter> >(std::remove_reference<std::default_delete<spdlog::formatter> >::type&)
FUNC 41982 57 0 std::_Hashtable<std::__cxx11::basic_string<char, std::char_traits<char>, std::allocator<char> >, std::pair<std::__cxx11::basic_string<char, std::char_traits<char>, std::allocator<char> > const, std::shared_ptr<spdlog::logger> >, std::allocator<std::pair<std::__cxx11::basic_string<char, std::char_traits<char>, std::allocator<char> > const, std::shared_ptr<spdlog::logger> > >, std::__detail::_Select1st, std::equal_to<std::__cxx11::basic_string<char, std::char_traits<char>, std::allocator<char> > >, std::hash<std::__cxx11::basic_string<char, std::char_traits<char>, std::allocator<char> > >, std::__detail::_Mod_range_hashing, std::__detail::_Default_ranged_hash, std::__detail::_Prime_rehash_policy, std::__detail::_Hashtable_traits<true, false, true> >::begin()
FUNC 419da 29 0 std::__detail::_Node_iterator_base<std::pair<std::__cxx11::basic_string<char, std::char_traits<char>, std::allocator<char> > const, std::shared_ptr<spdlog::logger> >, true>::_M_incr()
FUNC 41a03 12 0 std::shared_ptr<spdlog::logger>&& std::forward<std::shared_ptr<spdlog::logger> >(std::remove_reference<std::shared_ptr<spdlog::logger> >::type&)
FUNC 41a16 29 0 std::_Hashtable<std::__cxx11::basic_string<char, std::char_traits<char>, std::allocator<char> >, std::pair<std::__cxx11::basic_string<char, std::char_traits<char>, std::allocator<char> > const, std::shared_ptr<spdlog::logger> >, std::allocator<std::pair<std::__cxx11::basic_string<char, std::char_traits<char>, std::allocator<char> > const, std::shared_ptr<spdlog::logger> > >, std::__detail::_Select1st, std::equal_to<std::__cxx11::basic_string<char, std::char_traits<char>, std::allocator<char> > >, std::hash<std::__cxx11::basic_string<char, std::char_traits<char>, std::allocator<char> > >, std::__detail::_Mod_range_hashing, std::__detail::_Default_ranged_hash, std::__detail::_Prime_rehash_policy, std::__detail::_Hashtable_traits<true, false, true> >::erase(std::__cxx11::basic_string<char, std::char_traits<char>, std::allocator<char> > const&)
FUNC 41a40 67 0 std::__uniq_ptr_impl<spdlog::details::periodic_worker, std::default_delete<spdlog::details::periodic_worker> >::reset(spdlog::details::periodic_worker*)
FUNC 41aa8 45 0 std::__shared_ptr<spdlog::details::thread_pool, (__gnu_cxx::_Lock_policy)2>::swap(std::__shared_ptr<spdlog::details::thread_pool, (__gnu_cxx::_Lock_policy)2>&)
FUNC 41aed 12 0 std::remove_reference<std::_Hashtable<std::__cxx11::basic_string<char, std::char_traits<char>, std::allocator<char> >, std::pair<std::__cxx11::basic_string<char, std::char_traits<char>, std::allocator<char> > const, spdlog::level::level_enum>, std::allocator<std::pair<std::__cxx11::basic_string<char, std::char_traits<char>, std::allocator<char> > const, spdlog::level::level_enum> >, std::__detail::_Select1st, std::equal_to<std::__cxx11::basic_string<char, std::char_traits<char>, std::allocator<char> > >, std::hash<std::__cxx11::basic_string<char, std::char_traits<char>, std::allocator<char> > >, std::__detail::_Mod_range_hashing, std::__detail::_Default_ranged_hash, std::__detail::_Prime_rehash_policy, std::__detail::_Hashtable_traits<true, false, true> >&>::type&& std::move<std::_Hashtable<std::__cxx11::basic_string<char, std::char_traits<char>, std::allocator<char> >, std::pair<std::__cxx11::basic_string<char, std::char_traits<char>, std::allocator<char> > const, spdlog::level::level_enum>, std::allocator<std::pair<std::__cxx11::basic_string<char, std::char_traits<char>, std::allocator<char> > const, spdlog::level::level_enum> >, std::__detail::_Select1st, std::equal_to<std::__cxx11::basic_string<char, std::char_traits<char>, std::allocator<char> > >, std::hash<std::__cxx11::basic_string<char, std::char_traits<char>, std::allocator<char> > >, std::__detail::_Mod_range_hashing, std::__detail::_Default_ranged_hash, std::__detail::_Prime_rehash_policy, std::__detail::_Hashtable_traits<true, false, true> >&>(std::_Hashtable<std::__cxx11::basic_string<char, std::char_traits<char>, std::allocator<char> >, std::pair<std::__cxx11::basic_string<char, std::char_traits<char>, std::allocator<char> > const, spdlog::level::level_enum>, std::allocator<std::pair<std::__cxx11::basic_string<char, std::char_traits<char>, std::allocator<char> > const, spdlog::level::level_enum> >, std::__detail::_Select1st, std::equal_to<std::__cxx11::basic_string<char, std::char_traits<char>, std::allocator<char> > >, std::hash<std::__cxx11::basic_string<char, std::char_traits<char>, std::allocator<char> > >, std::__detail::_Mod_range_hashing, std::__detail::_Default_ranged_hash, std::__detail::_Prime_rehash_policy, std::__detail::_Hashtable_traits<true, false, true> >&)
FUNC 41b00 14a 0 std::_Hashtable<std::__cxx11::basic_string<char, std::char_traits<char>, std::allocator<char> >, std::pair<std::__cxx11::basic_string<char, std::char_traits<char>, std::allocator<char> > const, spdlog::level::level_enum>, std::allocator<std::pair<std::__cxx11::basic_string<char, std::char_traits<char>, std::allocator<char> > const, spdlog::level::level_enum> >, std::__detail::_Select1st, std::equal_to<std::__cxx11::basic_string<char, std::char_traits<char>, std::allocator<char> > >, std::hash<std::__cxx11::basic_string<char, std::char_traits<char>, std::allocator<char> > >, std::__detail::_Mod_range_hashing, std::__detail::_Default_ranged_hash, std::__detail::_Prime_rehash_policy, std::__detail::_Hashtable_traits<true, false, true> >::_M_move_assign(std::_Hashtable<std::__cxx11::basic_string<char, std::char_traits<char>, std::allocator<char> >, std::pair<std::__cxx11::basic_string<char, std::char_traits<char>, std::allocator<char> > const, spdlog::level::level_enum>, std::allocator<std::pair<std::__cxx11::basic_string<char, std::char_traits<char>, std::allocator<char> > const, spdlog::level::level_enum> >, std::__detail::_Select1st, std::equal_to<std::__cxx11::basic_string<char, std::char_traits<char>, std::allocator<char> > >, std::hash<std::__cxx11::basic_string<char, std::char_traits<char>, std::allocator<char> > >, std::__detail::_Mod_range_hashing, std::__detail::_Default_ranged_hash, std::__detail::_Prime_rehash_policy, std::__detail::_Hashtable_traits<true, false, true> >&&, std::integral_constant<bool, true>)
FUNC 41c4a 65 0 std::_Vector_base<std::shared_ptr<spdlog::sinks::sink>, std::allocator<std::shared_ptr<spdlog::sinks::sink> > >::_Vector_base(unsigned long, std::allocator<std::shared_ptr<spdlog::sinks::sink> > const&)
FUNC 41cb0 4c 0 std::vector<std::shared_ptr<spdlog::sinks::sink>, std::allocator<std::shared_ptr<spdlog::sinks::sink> > >::begin() const
FUNC 41cfc 50 0 std::vector<std::shared_ptr<spdlog::sinks::sink>, std::allocator<std::shared_ptr<spdlog::sinks::sink> > >::end() const
FUNC 41d4c 35 0 std::shared_ptr<spdlog::sinks::sink>* std::__uninitialized_copy_a<__gnu_cxx::__normal_iterator<std::shared_ptr<spdlog::sinks::sink> const*, std::vector<std::shared_ptr<spdlog::sinks::sink>, std::allocator<std::shared_ptr<spdlog::sinks::sink> > > >, std::shared_ptr<spdlog::sinks::sink>*, std::shared_ptr<spdlog::sinks::sink> >(__gnu_cxx::__normal_iterator<std::shared_ptr<spdlog::sinks::sink> const*, std::vector<std::shared_ptr<spdlog::sinks::sink>, std::allocator<std::shared_ptr<spdlog::sinks::sink> > > >, __gnu_cxx::__normal_iterator<std::shared_ptr<spdlog::sinks::sink> const*, std::vector<std::shared_ptr<spdlog::sinks::sink>, std::allocator<std::shared_ptr<spdlog::sinks::sink> > > >, std::shared_ptr<spdlog::sinks::sink>*, std::allocator<std::shared_ptr<spdlog::sinks::sink> >&)
FUNC 41d81 12 0 std::remove_reference<std::_Vector_base<std::shared_ptr<spdlog::sinks::sink>, std::allocator<std::shared_ptr<spdlog::sinks::sink> > >::_Vector_impl&>::type&& std::move<std::_Vector_base<std::shared_ptr<spdlog::sinks::sink>, std::allocator<std::shared_ptr<spdlog::sinks::sink> > >::_Vector_impl&>(std::_Vector_base<std::shared_ptr<spdlog::sinks::sink>, std::allocator<std::shared_ptr<spdlog::sinks::sink> > >::_Vector_impl&)
FUNC 41d94 6c 0 std::_Vector_base<std::shared_ptr<spdlog::sinks::sink>, std::allocator<std::shared_ptr<spdlog::sinks::sink> > >::_Vector_impl_data::_Vector_impl_data(std::_Vector_base<std::shared_ptr<spdlog::sinks::sink>, std::allocator<std::shared_ptr<spdlog::sinks::sink> > >::_Vector_impl_data&&)
FUNC 41e00 7f 0 std::_Vector_base<std::shared_ptr<spdlog::sinks::sink>, std::allocator<std::shared_ptr<spdlog::sinks::sink> > >::_Vector_impl_data::_M_swap_data(std::_Vector_base<std::shared_ptr<spdlog::sinks::sink>, std::allocator<std::shared_ptr<spdlog::sinks::sink> > >::_Vector_impl_data&)
FUNC 41e7f 91 0 std::enable_if<std::__and_<std::__not_<std::__is_tuple_like<std::_Any_data> >, std::is_move_constructible<std::_Any_data>, std::is_move_assignable<std::_Any_data> >::value, void>::type std::swap<std::_Any_data>(std::_Any_data&, std::_Any_data&)
FUNC 41f10 79 0 std::enable_if<std::__and_<std::__not_<std::__is_tuple_like<bool (*)(std::_Any_data&, std::_Any_data const&, std::_Manager_operation)> >, std::is_move_constructible<bool (*)(std::_Any_data&, std::_Any_data const&, std::_Manager_operation)>, std::is_move_assignable<bool (*)(std::_Any_data&, std::_Any_data const&, std::_Manager_operation)> >::value, void>::type std::swap<bool (*)(std::_Any_data&, std::_Any_data const&, std::_Manager_operation)>(bool (*&)(std::_Any_data&, std::_Any_data const&, std::_Manager_operation), bool (*&)(std::_Any_data&, std::_Any_data const&, std::_Manager_operation))
FUNC 41f89 79 0 std::enable_if<std::__and_<std::__not_<std::__is_tuple_like<void (*)(std::_Any_data const&, std::__cxx11::basic_string<char, std::char_traits<char>, std::allocator<char> > const&)> >, std::is_move_constructible<void (*)(std::_Any_data const&, std::__cxx11::basic_string<char, std::char_traits<char>, std::allocator<char> > const&)>, std::is_move_assignable<void (*)(std::_Any_data const&, std::__cxx11::basic_string<char, std::char_traits<char>, std::allocator<char> > const&)> >::value, void>::type std::swap<void (*)(std::_Any_data const&, std::__cxx11::basic_string<char, std::char_traits<char>, std::allocator<char> > const&)>(void (*&)(std::_Any_data const&, std::__cxx11::basic_string<char, std::char_traits<char>, std::allocator<char> > const&), void (*&)(std::_Any_data const&, std::__cxx11::basic_string<char, std::char_traits<char>, std::allocator<char> > const&))
FUNC 42002 1e 0 std::__shared_ptr_access<spdlog::sinks::sink, (__gnu_cxx::_Lock_policy)2, false, false>::_M_get() const
FUNC 42020 12 0 std::remove_reference<std::tuple<spdlog::formatter*, std::default_delete<spdlog::formatter> >&>::type&& std::move<std::tuple<spdlog::formatter*, std::default_delete<spdlog::formatter> >&>(std::tuple<spdlog::formatter*, std::default_delete<spdlog::formatter> >&)
FUNC 42032 13 0 std::_Tuple_impl<1ul, std::default_delete<spdlog::formatter> >::_Tuple_impl(std::_Tuple_impl<1ul, std::default_delete<spdlog::formatter> >&&)
FUNC 42045 12 0 spdlog::pattern_time_type& std::forward<spdlog::pattern_time_type&>(std::remove_reference<spdlog::pattern_time_type&>::type&)
FUNC 42058 2a 0 std::__uniq_ptr_data<spdlog::pattern_formatter, std::default_delete<spdlog::pattern_formatter>, true, true>::__uniq_ptr_impl(spdlog::pattern_formatter*)
FUNC 42082 2a 0 std::unique_ptr<spdlog::pattern_formatter, std::default_delete<spdlog::pattern_formatter> >::unique_ptr<std::default_delete<spdlog::pattern_formatter>, void>(spdlog::pattern_formatter*)
FUNC 420ac 1e 0 std::__uniq_ptr_impl<spdlog::pattern_formatter, std::default_delete<spdlog::pattern_formatter> >::_M_ptr()
FUNC 420ca 1e 0 std::unique_ptr<spdlog::pattern_formatter, std::default_delete<spdlog::pattern_formatter> >::get_deleter()
FUNC 420e8 12 0 std::remove_reference<spdlog::pattern_formatter*&>::type&& std::move<spdlog::pattern_formatter*&>(spdlog::pattern_formatter*&)
FUNC 420fa 71 0 spdlog::pattern_formatter::~pattern_formatter()
FUNC 4216c 2f 0 spdlog::pattern_formatter::~pattern_formatter()
FUNC 4219c 28 0 std::default_delete<spdlog::pattern_formatter>::operator()(spdlog::pattern_formatter*) const
FUNC 421c4 1e 0 std::unique_ptr<spdlog::pattern_formatter, std::default_delete<spdlog::pattern_formatter> >::release()
FUNC 421e2 12 0 std::default_delete<spdlog::pattern_formatter>&& std::forward<std::default_delete<spdlog::pattern_formatter> >(std::remove_reference<std::default_delete<spdlog::pattern_formatter> >::type&)
FUNC 421f4 42 0 std::__uniq_ptr_impl<spdlog::formatter, std::default_delete<spdlog::formatter> >::__uniq_ptr_impl<std::default_delete<spdlog::pattern_formatter> >(spdlog::formatter*, std::default_delete<spdlog::pattern_formatter>&&)
FUNC 42236 12 0 spdlog::logger& std::forward<spdlog::logger&>(std::remove_reference<spdlog::logger&>::type&)
FUNC 42248 42 0 std::shared_ptr<spdlog::logger>::shared_ptr<std::allocator<void>, spdlog::logger&>(std::_Sp_alloc_shared_tag<std::allocator<void> >, spdlog::logger&)
FUNC 4228a 5d 0 std::chrono::duration<long, std::ratio<1l, 1000000000l> >::duration<long, std::ratio<1l, 1l>, void>(std::chrono::duration<long, std::ratio<1l, 1l> > const&)
FUNC 422e8 2a 0 std::back_insert_iterator<fmt::v11::basic_memory_buffer<char, 250ul, fmt::v11::detail::allocator<char> > >::back_insert_iterator(fmt::v11::basic_memory_buffer<char, 250ul, fmt::v11::detail::allocator<char> >&)
FUNC 42312 91 0 std::remove_cv<std::remove_reference<std::back_insert_iterator<fmt::v11::basic_memory_buffer<char, 250ul, fmt::v11::detail::allocator<char> > >&>::type>::type fmt::v11::vformat_to<std::back_insert_iterator<fmt::v11::basic_memory_buffer<char, 250ul, fmt::v11::detail::allocator<char> > >&, 0>(std::back_insert_iterator<fmt::v11::basic_memory_buffer<char, 250ul, fmt::v11::detail::allocator<char> > >&, fmt::v11::basic_string_view<char>, fmt::v11::basic_format_args<fmt::v11::context>)
FUNC 423a4 2a 0 std::tuple<std::__cxx11::basic_string<char, std::char_traits<char>, std::allocator<char> > const&>::tuple<true, true>(std::__cxx11::basic_string<char, std::char_traits<char>, std::allocator<char> > const&)
FUNC 423ce f 0 std::_Rb_tree_key_compare<std::less<std::__cxx11::basic_string<char, std::char_traits<char>, std::allocator<char> > > >::_Rb_tree_key_compare()
FUNC 423dd 75 0 bool std::chrono::operator==<long, std::ratio<1l, 1l>, long, std::ratio<1l, 1l> >(std::chrono::duration<long, std::ratio<1l, 1l> > const&, std::chrono::duration<long, std::ratio<1l, 1l> > const&)
FUNC 42452 1e 0 std::enable_if<std::chrono::__is_duration<std::chrono::duration<long, std::ratio<1l, 1000l> > >::value, std::chrono::duration<long, std::ratio<1l, 1000l> > >::type std::chrono::duration_cast<std::chrono::duration<long, std::ratio<1l, 1000l> >, long, std::ratio<1l, 1l> >(std::chrono::duration<long, std::ratio<1l, 1l> > const&)
FUNC 42470 90 0 std::common_type<std::chrono::duration<long, std::ratio<1l, 1000l> >, std::chrono::duration<long, std::ratio<1l, 1000l> > >::type std::chrono::operator-<long, std::ratio<1l, 1000l>, long, std::ratio<1l, 1000l> >(std::chrono::duration<long, std::ratio<1l, 1000l> > const&, std::chrono::duration<long, std::ratio<1l, 1000l> > const&)
FUNC 42500 90 0 void spdlog::details::fmt_helper::append_int<unsigned int>(unsigned int, fmt::v11::basic_memory_buffer<char, 250ul, fmt::v11::detail::allocator<char> >&)
FUNC 42590 1c 0 std::_Rb_tree<std::__cxx11::basic_string<char, std::char_traits<char>, std::allocator<char> >, std::pair<std::__cxx11::basic_string<char, std::char_traits<char>, std::allocator<char> > const, std::__cxx11::basic_string<char, std::char_traits<char>, std::allocator<char> > >, std::_Select1st<std::pair<std::__cxx11::basic_string<char, std::char_traits<char>, std::allocator<char> > const, std::__cxx11::basic_string<char, std::char_traits<char>, std::allocator<char> > > >, std::less<std::__cxx11::basic_string<char, std::char_traits<char>, std::allocator<char> > >, std::allocator<std::pair<std::__cxx11::basic_string<char, std::char_traits<char>, std::allocator<char> > const, std::__cxx11::basic_string<char, std::char_traits<char>, std::allocator<char> > > > >::empty() const
FUNC 425ac 1e 0 std::map<std::__cxx11::basic_string<char, std::char_traits<char>, std::allocator<char> >, std::__cxx11::basic_string<char, std::char_traits<char>, std::allocator<char> >, std::less<std::__cxx11::basic_string<char, std::char_traits<char>, std::allocator<char> > >, std::allocator<std::pair<std::__cxx11::basic_string<char, std::char_traits<char>, std::allocator<char> > const, std::__cxx11::basic_string<char, std::char_traits<char>, std::allocator<char> > > > >::end() const
FUNC 425ca 2c 0 std::_Rb_tree_const_iterator<std::pair<std::__cxx11::basic_string<char, std::char_traits<char>, std::allocator<char> > const, std::__cxx11::basic_string<char, std::char_traits<char>, std::allocator<char> > > >::operator--()
FUNC 425f6 1e 0 std::map<std::__cxx11::basic_string<char, std::char_traits<char>, std::allocator<char> >, std::__cxx11::basic_string<char, std::char_traits<char>, std::allocator<char> >, std::less<std::__cxx11::basic_string<char, std::char_traits<char>, std::allocator<char> > >, std::allocator<std::pair<std::__cxx11::basic_string<char, std::char_traits<char>, std::allocator<char> > const, std::__cxx11::basic_string<char, std::char_traits<char>, std::allocator<char> > > > >::begin() const
FUNC 42614 26 0 std::operator!=(std::_Rb_tree_const_iterator<std::pair<std::__cxx11::basic_string<char, std::char_traits<char>, std::allocator<char> > const, std::__cxx11::basic_string<char, std::char_traits<char>, std::allocator<char> > > > const&, std::_Rb_tree_const_iterator<std::pair<std::__cxx11::basic_string<char, std::char_traits<char>, std::allocator<char> > const, std::__cxx11::basic_string<char, std::char_traits<char>, std::allocator<char> > > > const&)
FUNC 4263a 2c 0 std::_Rb_tree_const_iterator<std::pair<std::__cxx11::basic_string<char, std::char_traits<char>, std::allocator<char> > const, std::__cxx11::basic_string<char, std::char_traits<char>, std::allocator<char> > > >::operator++()
FUNC 42666 21 0 std::_Rb_tree_const_iterator<std::pair<std::__cxx11::basic_string<char, std::char_traits<char>, std::allocator<char> > const, std::__cxx11::basic_string<char, std::char_traits<char>, std::allocator<char> > > >::operator*() const
FUNC 42688 32 0 std::_Vector_base<std::unique_ptr<spdlog::details::flag_formatter, std::default_delete<spdlog::details::flag_formatter> >, std::allocator<std::unique_ptr<spdlog::details::flag_formatter, std::default_delete<spdlog::details::flag_formatter> > > >::_Vector_impl_data::_Vector_impl_data()
FUNC 426ba f 0 std::__new_allocator<std::unique_ptr<spdlog::details::flag_formatter, std::default_delete<spdlog::details::flag_formatter> > >::~__new_allocator()
FUNC 426ca 52 0 std::_Vector_base<std::unique_ptr<spdlog::details::flag_formatter, std::default_delete<spdlog::details::flag_formatter> >, std::allocator<std::unique_ptr<spdlog::details::flag_formatter, std::default_delete<spdlog::details::flag_formatter> > > >::_M_deallocate(std::unique_ptr<spdlog::details::flag_formatter, std::default_delete<spdlog::details::flag_formatter> >*, unsigned long)
FUNC 4271c 12 0 std::_Vector_base<std::unique_ptr<spdlog::details::flag_formatter, std::default_delete<spdlog::details::flag_formatter> >, std::allocator<std::unique_ptr<spdlog::details::flag_formatter, std::default_delete<spdlog::details::flag_formatter> > > >::_M_get_Tp_allocator()
FUNC 4272e 12 0 std::remove_reference<std::_Hashtable<char, std::pair<char const, std::unique_ptr<spdlog::custom_flag_formatter, std::default_delete<spdlog::custom_flag_formatter> > >, std::allocator<std::pair<char const, std::unique_ptr<spdlog::custom_flag_formatter, std::default_delete<spdlog::custom_flag_formatter> > > >, std::__detail::_Select1st, std::equal_to<char>, std::hash<char>, std::__detail::_Mod_range_hashing, std::__detail::_Default_ranged_hash, std::__detail::_Prime_rehash_policy, std::__detail::_Hashtable_traits<false, false, true> >&>::type&& std::move<std::_Hashtable<char, std::pair<char const, std::unique_ptr<spdlog::custom_flag_formatter, std::default_delete<spdlog::custom_flag_formatter> > >, std::allocator<std::pair<char const, std::unique_ptr<spdlog::custom_flag_formatter, std::default_delete<spdlog::custom_flag_formatter> > > >, std::__detail::_Select1st, std::equal_to<char>, std::hash<char>, std::__detail::_Mod_range_hashing, std::__detail::_Default_ranged_hash, std::__detail::_Prime_rehash_policy, std::__detail::_Hashtable_traits<false, false, true> >&>(std::_Hashtable<char, std::pair<char const, std::unique_ptr<spdlog::custom_flag_formatter, std::default_delete<spdlog::custom_flag_formatter> > >, std::allocator<std::pair<char const, std::unique_ptr<spdlog::custom_flag_formatter, std::default_delete<spdlog::custom_flag_formatter> > > >, std::__detail::_Select1st, std::equal_to<char>, std::hash<char>, std::__detail::_Mod_range_hashing, std::__detail::_Default_ranged_hash, std::__detail::_Prime_rehash_policy, std::__detail::_Hashtable_traits<false, false, true> >&)
FUNC 42740 1e 0 std::__detail::_Hashtable_alloc<std::allocator<std::__detail::_Hash_node<std::pair<char const, std::unique_ptr<spdlog::custom_flag_formatter, std::default_delete<spdlog::custom_flag_formatter> > >, false> > >::_M_node_allocator()
FUNC 4275e 12 0 std::remove_reference<std::allocator<std::__detail::_Hash_node<std::pair<char const, std::unique_ptr<spdlog::custom_flag_formatter, std::default_delete<spdlog::custom_flag_formatter> > >, false> >&>::type&& std::move<std::allocator<std::__detail::_Hash_node<std::pair<char const, std::unique_ptr<spdlog::custom_flag_formatter, std::default_delete<spdlog::custom_flag_formatter> > >, false> >&>(std::allocator<std::__detail::_Hash_node<std::pair<char const, std::unique_ptr<spdlog::custom_flag_formatter, std::default_delete<spdlog::custom_flag_formatter> > >, false> >&)
FUNC 42770 ed 0 std::_Hashtable<char, std::pair<char const, std::unique_ptr<spdlog::custom_flag_formatter, std::default_delete<spdlog::custom_flag_formatter> > >, std::allocator<std::pair<char const, std::unique_ptr<spdlog::custom_flag_formatter, std::default_delete<spdlog::custom_flag_formatter> > > >, std::__detail::_Select1st, std::equal_to<char>, std::hash<char>, std::__detail::_Mod_range_hashing, std::__detail::_Default_ranged_hash, std::__detail::_Prime_rehash_policy, std::__detail::_Hashtable_traits<false, false, true> >::_Hashtable(std::_Hashtable<char, std::pair<char const, std::unique_ptr<spdlog::custom_flag_formatter, std::default_delete<spdlog::custom_flag_formatter> > >, std::allocator<std::pair<char const, std::unique_ptr<spdlog::custom_flag_formatter, std::default_delete<spdlog::custom_flag_formatter> > > >, std::__detail::_Select1st, std::equal_to<char>, std::hash<char>, std::__detail::_Mod_range_hashing, std::__detail::_Default_ranged_hash, std::__detail::_Prime_rehash_policy, std::__detail::_Hashtable_traits<false, false, true> >&&, std::allocator<std::__detail::_Hash_node<std::pair<char const, std::unique_ptr<spdlog::custom_flag_formatter, std::default_delete<spdlog::custom_flag_formatter> > >, false> >&&, std::integral_constant<bool, true>)
FUNC 4285d 12 0 spdlog::details::padding_info&& std::forward<spdlog::details::padding_info>(std::remove_reference<spdlog::details::padding_info>::type&)
FUNC 42870 2a 0 std::__uniq_ptr_data<spdlog::details::full_formatter, std::default_delete<spdlog::details::full_formatter>, true, true>::__uniq_ptr_impl(spdlog::details::full_formatter*)
FUNC 4289a 2a 0 std::unique_ptr<spdlog::details::full_formatter, std::default_delete<spdlog::details::full_formatter> >::unique_ptr<std::default_delete<spdlog::details::full_formatter>, void>(spdlog::details::full_formatter*)
FUNC 428c4 1e 0 std::__uniq_ptr_impl<spdlog::details::full_formatter, std::default_delete<spdlog::details::full_formatter> >::_M_ptr()
FUNC 428e2 1e 0 std::unique_ptr<spdlog::details::full_formatter, std::default_delete<spdlog::details::full_formatter> >::get_deleter()
FUNC 42900 12 0 std::remove_reference<spdlog::details::full_formatter*&>::type&& std::move<spdlog::details::full_formatter*&>(spdlog::details::full_formatter*&)
FUNC 42912 4f 0 spdlog::details::full_formatter::~full_formatter()
FUNC 42962 2f 0 spdlog::details::full_formatter::~full_formatter()
FUNC 42992 28 0 std::default_delete<spdlog::details::full_formatter>::operator()(spdlog::details::full_formatter*) const
FUNC 429ba 1e 0 std::unique_ptr<spdlog::details::full_formatter, std::default_delete<spdlog::details::full_formatter> >::release()
FUNC 429d8 12 0 std::default_delete<spdlog::details::full_formatter>&& std::forward<std::default_delete<spdlog::details::full_formatter> >(std::remove_reference<std::default_delete<spdlog::details::full_formatter> >::type&)
FUNC 429ea 42 0 std::__uniq_ptr_impl<spdlog::details::flag_formatter, std::default_delete<spdlog::details::flag_formatter> >::__uniq_ptr_impl<std::default_delete<spdlog::details::full_formatter> >(spdlog::details::flag_formatter*, std::default_delete<spdlog::details::full_formatter>&&)
FUNC 42a2c 1e 0 std::__uniq_ptr_impl<spdlog::details::flag_formatter, std::default_delete<spdlog::details::flag_formatter> >::_M_ptr()
FUNC 42a4a 1e 0 std::unique_ptr<spdlog::details::flag_formatter, std::default_delete<spdlog::details::flag_formatter> >::get_deleter()
FUNC 42a68 12 0 std::remove_reference<spdlog::details::flag_formatter*&>::type&& std::move<spdlog::details::flag_formatter*&>(spdlog::details::flag_formatter*&)
FUNC 42a7a 2f 0 std::default_delete<spdlog::details::flag_formatter>::operator()(spdlog::details::flag_formatter*) const
FUNC 42aa9 12 0 std::remove_reference<std::unique_ptr<spdlog::details::flag_formatter, std::default_delete<spdlog::details::flag_formatter> >&>::type&& std::move<std::unique_ptr<spdlog::details::flag_formatter, std::default_delete<spdlog::details::flag_formatter> >&>(std::unique_ptr<spdlog::details::flag_formatter, std::default_delete<spdlog::details::flag_formatter> >&)
FUNC 42abc f7 0 std::unique_ptr<spdlog::details::flag_formatter, std::default_delete<spdlog::details::flag_formatter> >& std::vector<std::unique_ptr<spdlog::details::flag_formatter, std::default_delete<spdlog::details::flag_formatter> >, std::allocator<std::unique_ptr<spdlog::details::flag_formatter, std::default_delete<spdlog::details::flag_formatter> > > >::emplace_back<std::unique_ptr<spdlog::details::flag_formatter, std::default_delete<spdlog::details::flag_formatter> > >(std::unique_ptr<spdlog::details::flag_formatter, std::default_delete<spdlog::details::flag_formatter> >&&)
FUNC 42bb4 57 0 std::_Hashtable<char, std::pair<char const, std::unique_ptr<spdlog::custom_flag_formatter, std::default_delete<spdlog::custom_flag_formatter> > >, std::allocator<std::pair<char const, std::unique_ptr<spdlog::custom_flag_formatter, std::default_delete<spdlog::custom_flag_formatter> > > >, std::__detail::_Select1st, std::equal_to<char>, std::hash<char>, std::__detail::_Mod_range_hashing, std::__detail::_Default_ranged_hash, std::__detail::_Prime_rehash_policy, std::__detail::_Hashtable_traits<false, false, true> >::begin() const
FUNC 42c0c 4a 0 std::_Hashtable<char, std::pair<char const, std::unique_ptr<spdlog::custom_flag_formatter, std::default_delete<spdlog::custom_flag_formatter> > >, std::allocator<std::pair<char const, std::unique_ptr<spdlog::custom_flag_formatter, std::default_delete<spdlog::custom_flag_formatter> > > >, std::__detail::_Select1st, std::equal_to<char>, std::hash<char>, std::__detail::_Mod_range_hashing, std::__detail::_Default_ranged_hash, std::__detail::_Prime_rehash_policy, std::__detail::_Hashtable_traits<false, false, true> >::end() const
FUNC 42c56 29 0 std::__detail::_Node_iterator_base<std::pair<char const, std::unique_ptr<spdlog::custom_flag_formatter, std::default_delete<spdlog::custom_flag_formatter> > >, false>::_M_incr()
FUNC 42c80 17a 0 std::__detail::_Map_base<char, std::pair<char const, std::unique_ptr<spdlog::custom_flag_formatter, std::default_delete<spdlog::custom_flag_formatter> > >, std::allocator<std::pair<char const, std::unique_ptr<spdlog::custom_flag_formatter, std::default_delete<spdlog::custom_flag_formatter> > > >, std::__detail::_Select1st, std::equal_to<char>, std::hash<char>, std::__detail::_Mod_range_hashing, std::__detail::_Default_ranged_hash, std::__detail::_Prime_rehash_policy, std::__detail::_Hashtable_traits<false, false, true>, true>::operator[](char const&)
FUNC 42dfa 1e 0 std::unique_ptr<spdlog::custom_flag_formatter, std::default_delete<spdlog::custom_flag_formatter> >::get() const
FUNC 42e18 1e 0 std::__uniq_ptr_impl<spdlog::custom_flag_formatter, std::default_delete<spdlog::custom_flag_formatter> >::_M_ptr()
FUNC 42e36 1e 0 std::unique_ptr<spdlog::custom_flag_formatter, std::default_delete<spdlog::custom_flag_formatter> >::get_deleter()
FUNC 42e54 12 0 std::remove_reference<spdlog::custom_flag_formatter*&>::type&& std::move<spdlog::custom_flag_formatter*&>(spdlog::custom_flag_formatter*&)
FUNC 42e66 2f 0 std::default_delete<spdlog::custom_flag_formatter>::operator()(spdlog::custom_flag_formatter*) const
FUNC 42e96 67 0 std::__uniq_ptr_impl<spdlog::custom_flag_formatter, std::default_delete<spdlog::custom_flag_formatter> >::reset(spdlog::custom_flag_formatter*)
FUNC 42efe 3c 0 std::__uniq_ptr_impl<spdlog::custom_flag_formatter, std::default_delete<spdlog::custom_flag_formatter> >::release()
FUNC 42f3a 1e 0 std::__uniq_ptr_impl<spdlog::custom_flag_formatter, std::default_delete<spdlog::custom_flag_formatter> >::_M_deleter()
FUNC 42f58 12 0 std::default_delete<spdlog::custom_flag_formatter>&& std::forward<std::default_delete<spdlog::custom_flag_formatter> >(std::remove_reference<std::default_delete<spdlog::custom_flag_formatter> >::type&)
FUNC 42f6a 12 0 spdlog::pattern_time_type const& std::forward<spdlog::pattern_time_type const&>(std::remove_reference<spdlog::pattern_time_type const&>::type&)
FUNC 42f7c 12 0 std::unordered_map<char, std::unique_ptr<spdlog::custom_flag_formatter, std::default_delete<spdlog::custom_flag_formatter> >, std::hash<char>, std::equal_to<char>, std::allocator<std::pair<char const, std::unique_ptr<spdlog::custom_flag_formatter, std::default_delete<spdlog::custom_flag_formatter> > > > >&& std::forward<std::unordered_map<char, std::unique_ptr<spdlog::custom_flag_formatter, std::default_delete<spdlog::custom_flag_formatter> >, std::hash<char>, std::equal_to<char>, std::allocator<std::pair<char const, std::unique_ptr<spdlog::custom_flag_formatter, std::default_delete<spdlog::custom_flag_formatter> > > > > >(std::remove_reference<std::unordered_map<char, std::unique_ptr<spdlog::custom_flag_formatter, std::default_delete<spdlog::custom_flag_formatter> >, std::hash<char>, std::equal_to<char>, std::allocator<std::pair<char const, std::unique_ptr<spdlog::custom_flag_formatter, std::default_delete<spdlog::custom_flag_formatter> > > > > >::type&)
FUNC 42f8e 1e 0 std::unique_ptr<spdlog::pattern_formatter, std::default_delete<spdlog::pattern_formatter> >::get() const
FUNC 42fac 21 0 __gnu_cxx::__normal_iterator<std::unique_ptr<spdlog::details::flag_formatter, std::default_delete<spdlog::details::flag_formatter> >*, std::vector<std::unique_ptr<spdlog::details::flag_formatter, std::default_delete<spdlog::details::flag_formatter> >, std::allocator<std::unique_ptr<spdlog::details::flag_formatter, std::default_delete<spdlog::details::flag_formatter> > > > >::__normal_iterator(std::unique_ptr<spdlog::details::flag_formatter, std::default_delete<spdlog::details::flag_formatter> >* const&)
FUNC 42fce 12 0 __gnu_cxx::__normal_iterator<std::unique_ptr<spdlog::details::flag_formatter, std::default_delete<spdlog::details::flag_formatter> >*, std::vector<std::unique_ptr<spdlog::details::flag_formatter, std::default_delete<spdlog::details::flag_formatter> >, std::allocator<std::unique_ptr<spdlog::details::flag_formatter, std::default_delete<spdlog::details::flag_formatter> > > > >::base() const
FUNC 42fe0 1e 0 std::unique_ptr<spdlog::details::flag_formatter, std::default_delete<spdlog::details::flag_formatter> >::get() const
FUNC 42ffe 12 0 __gnu_cxx::__normal_iterator<char const*, std::__cxx11::basic_string<char, std::char_traits<char>, std::allocator<char> > >::base() const
FUNC 43010 1e 0 std::__uniq_ptr_impl<spdlog::details::aggregate_formatter, std::default_delete<spdlog::details::aggregate_formatter> >::_M_ptr()
FUNC 4302e 1e 0 std::unique_ptr<spdlog::details::aggregate_formatter, std::default_delete<spdlog::details::aggregate_formatter> >::get_deleter()
FUNC 4304c 12 0 std::remove_reference<spdlog::details::aggregate_formatter*&>::type&& std::move<spdlog::details::aggregate_formatter*&>(spdlog::details::aggregate_formatter*&)
FUNC 4305e 3d 0 spdlog::details::aggregate_formatter::~aggregate_formatter()
FUNC 4309c 2f 0 spdlog::details::aggregate_formatter::~aggregate_formatter()
FUNC 430cc 28 0 std::default_delete<spdlog::details::aggregate_formatter>::operator()(spdlog::details::aggregate_formatter*) const
FUNC 430f4 76 0 std::vector<std::unique_ptr<spdlog::details::flag_formatter, std::default_delete<spdlog::details::flag_formatter> >, std::allocator<std::unique_ptr<spdlog::details::flag_formatter, std::default_delete<spdlog::details::flag_formatter> > > >::_M_erase_at_end(std::unique_ptr<spdlog::details::flag_formatter, std::default_delete<spdlog::details::flag_formatter> >*)
FUNC 4316a 1e 0 std::unique_ptr<spdlog::details::aggregate_formatter, std::default_delete<spdlog::details::aggregate_formatter> >::get() const
FUNC 43188 1e 0 std::unique_ptr<spdlog::details::aggregate_formatter, std::default_delete<spdlog::details::aggregate_formatter> >::release()
FUNC 431a6 12 0 std::default_delete<spdlog::details::aggregate_formatter>&& std::forward<std::default_delete<spdlog::details::aggregate_formatter> >(std::remove_reference<std::default_delete<spdlog::details::aggregate_formatter> >::type&)
FUNC 431b8 42 0 std::__uniq_ptr_impl<spdlog::details::flag_formatter, std::default_delete<spdlog::details::flag_formatter> >::__uniq_ptr_impl<std::default_delete<spdlog::details::aggregate_formatter> >(spdlog::details::flag_formatter*, std::default_delete<spdlog::details::aggregate_formatter>&&)
FUNC 431fa 29 0 std::unordered_map<char, std::unique_ptr<spdlog::custom_flag_formatter, std::default_delete<spdlog::custom_flag_formatter> >, std::hash<char>, std::equal_to<char>, std::allocator<std::pair<char const, std::unique_ptr<spdlog::custom_flag_formatter, std::default_delete<spdlog::custom_flag_formatter> > > > >::find(char const&)
FUNC 43224 1e 0 std::unordered_map<char, std::unique_ptr<spdlog::custom_flag_formatter, std::default_delete<spdlog::custom_flag_formatter> >, std::hash<char>, std::equal_to<char>, std::allocator<std::pair<char const, std::unique_ptr<spdlog::custom_flag_formatter, std::default_delete<spdlog::custom_flag_formatter> > > > >::end()
FUNC 43242 2e 0 std::__detail::_Node_iterator<std::pair<char const, std::unique_ptr<spdlog::custom_flag_formatter, std::default_delete<spdlog::custom_flag_formatter> > >, false, false>::operator->() const
FUNC 43270 12 0 std::remove_reference<std::unique_ptr<spdlog::custom_flag_formatter, std::default_delete<spdlog::custom_flag_formatter> >&>::type&& std::move<std::unique_ptr<spdlog::custom_flag_formatter, std::default_delete<spdlog::custom_flag_formatter> >&>(std::unique_ptr<spdlog::custom_flag_formatter, std::default_delete<spdlog::custom_flag_formatter> >&)
FUNC 43282 32 0 std::__uniq_ptr_data<spdlog::details::flag_formatter, std::default_delete<spdlog::details::flag_formatter>, true, true>::__uniq_ptr_impl<std::default_delete<spdlog::custom_flag_formatter> >(spdlog::details::flag_formatter*, std::default_delete<spdlog::custom_flag_formatter>&&)
FUNC 432b4 56 0 std::unique_ptr<spdlog::details::flag_formatter, std::default_delete<spdlog::details::flag_formatter> >::unique_ptr<spdlog::custom_flag_formatter, std::default_delete<spdlog::custom_flag_formatter>, void>(std::unique_ptr<spdlog::custom_flag_formatter, std::default_delete<spdlog::custom_flag_formatter> >&&)
FUNC 4330a 91 0 std::__detail::_MakeUniq<spdlog::details::full_formatter>::__single_object std::make_unique<spdlog::details::full_formatter, spdlog::details::padding_info&>(spdlog::details::padding_info&)
FUNC 4339b 5c 0 std::__detail::_MakeUniq<spdlog::details::name_formatter<spdlog::details::scoped_padder> >::__single_object std::make_unique<spdlog::details::name_formatter<spdlog::details::scoped_padder>, spdlog::details::padding_info&>(spdlog::details::padding_info&)
FUNC 433f8 68 0 std::unique_ptr<spdlog::details::name_formatter<spdlog::details::scoped_padder>, std::default_delete<spdlog::details::name_formatter<spdlog::details::scoped_padder> > >::~unique_ptr()
FUNC 43460 32 0 std::__uniq_ptr_data<spdlog::details::flag_formatter, std::default_delete<spdlog::details::flag_formatter>, true, true>::__uniq_ptr_impl<std::default_delete<spdlog::details::name_formatter<spdlog::details::scoped_padder> > >(spdlog::details::flag_formatter*, std::default_delete<spdlog::details::name_formatter<spdlog::details::scoped_padder> >&&)
FUNC 43492 56 0 std::unique_ptr<spdlog::details::flag_formatter, std::default_delete<spdlog::details::flag_formatter> >::unique_ptr<spdlog::details::name_formatter<spdlog::details::scoped_padder>, std::default_delete<spdlog::details::name_formatter<spdlog::details::scoped_padder> >, void>(std::unique_ptr<spdlog::details::name_formatter<spdlog::details::scoped_padder>, std::default_delete<spdlog::details::name_formatter<spdlog::details::scoped_padder> > >&&)
FUNC 434e8 5c 0 std::__detail::_MakeUniq<spdlog::details::level_formatter<spdlog::details::scoped_padder> >::__single_object std::make_unique<spdlog::details::level_formatter<spdlog::details::scoped_padder>, spdlog::details::padding_info&>(spdlog::details::padding_info&)
FUNC 43544 68 0 std::unique_ptr<spdlog::details::level_formatter<spdlog::details::scoped_padder>, std::default_delete<spdlog::details::level_formatter<spdlog::details::scoped_padder> > >::~unique_ptr()
FUNC 435ac 32 0 std::__uniq_ptr_data<spdlog::details::flag_formatter, std::default_delete<spdlog::details::flag_formatter>, true, true>::__uniq_ptr_impl<std::default_delete<spdlog::details::level_formatter<spdlog::details::scoped_padder> > >(spdlog::details::flag_formatter*, std::default_delete<spdlog::details::level_formatter<spdlog::details::scoped_padder> >&&)
FUNC 435de 56 0 std::unique_ptr<spdlog::details::flag_formatter, std::default_delete<spdlog::details::flag_formatter> >::unique_ptr<spdlog::details::level_formatter<spdlog::details::scoped_padder>, std::default_delete<spdlog::details::level_formatter<spdlog::details::scoped_padder> >, void>(std::unique_ptr<spdlog::details::level_formatter<spdlog::details::scoped_padder>, std::default_delete<spdlog::details::level_formatter<spdlog::details::scoped_padder> > >&&)
FUNC 43634 5c 0 std::__detail::_MakeUniq<spdlog::details::short_level_formatter<spdlog::details::scoped_padder> >::__single_object std::make_unique<spdlog::details::short_level_formatter<spdlog::details::scoped_padder>, spdlog::details::padding_info&>(spdlog::details::padding_info&)
FUNC 43690 68 0 std::unique_ptr<spdlog::details::short_level_formatter<spdlog::details::scoped_padder>, std::default_delete<spdlog::details::short_level_formatter<spdlog::details::scoped_padder> > >::~unique_ptr()
FUNC 436f8 32 0 std::__uniq_ptr_data<spdlog::details::flag_formatter, std::default_delete<spdlog::details::flag_formatter>, true, true>::__uniq_ptr_impl<std::default_delete<spdlog::details::short_level_formatter<spdlog::details::scoped_padder> > >(spdlog::details::flag_formatter*, std::default_delete<spdlog::details::short_level_formatter<spdlog::details::scoped_padder> >&&)
FUNC 4372a 56 0 std::unique_ptr<spdlog::details::flag_formatter, std::default_delete<spdlog::details::flag_formatter> >::unique_ptr<spdlog::details::short_level_formatter<spdlog::details::scoped_padder>, std::default_delete<spdlog::details::short_level_formatter<spdlog::details::scoped_padder> >, void>(std::unique_ptr<spdlog::details::short_level_formatter<spdlog::details::scoped_padder>, std::default_delete<spdlog::details::short_level_formatter<spdlog::details::scoped_padder> > >&&)
FUNC 43780 5c 0 std::__detail::_MakeUniq<spdlog::details::t_formatter<spdlog::details::scoped_padder> >::__single_object std::make_unique<spdlog::details::t_formatter<spdlog::details::scoped_padder>, spdlog::details::padding_info&>(spdlog::details::padding_info&)
FUNC 437dc 68 0 std::unique_ptr<spdlog::details::t_formatter<spdlog::details::scoped_padder>, std::default_delete<spdlog::details::t_formatter<spdlog::details::scoped_padder> > >::~unique_ptr()
FUNC 43844 32 0 std::__uniq_ptr_data<spdlog::details::flag_formatter, std::default_delete<spdlog::details::flag_formatter>, true, true>::__uniq_ptr_impl<std::default_delete<spdlog::details::t_formatter<spdlog::details::scoped_padder> > >(spdlog::details::flag_formatter*, std::default_delete<spdlog::details::t_formatter<spdlog::details::scoped_padder> >&&)
FUNC 43876 56 0 std::unique_ptr<spdlog::details::flag_formatter, std::default_delete<spdlog::details::flag_formatter> >::unique_ptr<spdlog::details::t_formatter<spdlog::details::scoped_padder>, std::default_delete<spdlog::details::t_formatter<spdlog::details::scoped_padder> >, void>(std::unique_ptr<spdlog::details::t_formatter<spdlog::details::scoped_padder>, std::default_delete<spdlog::details::t_formatter<spdlog::details::scoped_padder> > >&&)
FUNC 438cc 5c 0 std::__detail::_MakeUniq<spdlog::details::v_formatter<spdlog::details::scoped_padder> >::__single_object std::make_unique<spdlog::details::v_formatter<spdlog::details::scoped_padder>, spdlog::details::padding_info&>(spdlog::details::padding_info&)
FUNC 43928 68 0 std::unique_ptr<spdlog::details::v_formatter<spdlog::details::scoped_padder>, std::default_delete<spdlog::details::v_formatter<spdlog::details::scoped_padder> > >::~unique_ptr()
FUNC 43990 32 0 std::__uniq_ptr_data<spdlog::details::flag_formatter, std::default_delete<spdlog::details::flag_formatter>, true, true>::__uniq_ptr_impl<std::default_delete<spdlog::details::v_formatter<spdlog::details::scoped_padder> > >(spdlog::details::flag_formatter*, std::default_delete<spdlog::details::v_formatter<spdlog::details::scoped_padder> >&&)
FUNC 439c2 56 0 std::unique_ptr<spdlog::details::flag_formatter, std::default_delete<spdlog::details::flag_formatter> >::unique_ptr<spdlog::details::v_formatter<spdlog::details::scoped_padder>, std::default_delete<spdlog::details::v_formatter<spdlog::details::scoped_padder> >, void>(std::unique_ptr<spdlog::details::v_formatter<spdlog::details::scoped_padder>, std::default_delete<spdlog::details::v_formatter<spdlog::details::scoped_padder> > >&&)
FUNC 43a18 5c 0 std::__detail::_MakeUniq<spdlog::details::a_formatter<spdlog::details::scoped_padder> >::__single_object std::make_unique<spdlog::details::a_formatter<spdlog::details::scoped_padder>, spdlog::details::padding_info&>(spdlog::details::padding_info&)
FUNC 43a74 68 0 std::unique_ptr<spdlog::details::a_formatter<spdlog::details::scoped_padder>, std::default_delete<spdlog::details::a_formatter<spdlog::details::scoped_padder> > >::~unique_ptr()
FUNC 43adc 32 0 std::__uniq_ptr_data<spdlog::details::flag_formatter, std::default_delete<spdlog::details::flag_formatter>, true, true>::__uniq_ptr_impl<std::default_delete<spdlog::details::a_formatter<spdlog::details::scoped_padder> > >(spdlog::details::flag_formatter*, std::default_delete<spdlog::details::a_formatter<spdlog::details::scoped_padder> >&&)
FUNC 43b0e 56 0 std::unique_ptr<spdlog::details::flag_formatter, std::default_delete<spdlog::details::flag_formatter> >::unique_ptr<spdlog::details::a_formatter<spdlog::details::scoped_padder>, std::default_delete<spdlog::details::a_formatter<spdlog::details::scoped_padder> >, void>(std::unique_ptr<spdlog::details::a_formatter<spdlog::details::scoped_padder>, std::default_delete<spdlog::details::a_formatter<spdlog::details::scoped_padder> > >&&)
FUNC 43b64 5c 0 std::__detail::_MakeUniq<spdlog::details::A_formatter<spdlog::details::scoped_padder> >::__single_object std::make_unique<spdlog::details::A_formatter<spdlog::details::scoped_padder>, spdlog::details::padding_info&>(spdlog::details::padding_info&)
FUNC 43bc0 68 0 std::unique_ptr<spdlog::details::A_formatter<spdlog::details::scoped_padder>, std::default_delete<spdlog::details::A_formatter<spdlog::details::scoped_padder> > >::~unique_ptr()
FUNC 43c28 32 0 std::__uniq_ptr_data<spdlog::details::flag_formatter, std::default_delete<spdlog::details::flag_formatter>, true, true>::__uniq_ptr_impl<std::default_delete<spdlog::details::A_formatter<spdlog::details::scoped_padder> > >(spdlog::details::flag_formatter*, std::default_delete<spdlog::details::A_formatter<spdlog::details::scoped_padder> >&&)
FUNC 43c5a 56 0 std::unique_ptr<spdlog::details::flag_formatter, std::default_delete<spdlog::details::flag_formatter> >::unique_ptr<spdlog::details::A_formatter<spdlog::details::scoped_padder>, std::default_delete<spdlog::details::A_formatter<spdlog::details::scoped_padder> >, void>(std::unique_ptr<spdlog::details::A_formatter<spdlog::details::scoped_padder>, std::default_delete<spdlog::details::A_formatter<spdlog::details::scoped_padder> > >&&)
FUNC 43cb0 5c 0 std::__detail::_MakeUniq<spdlog::details::b_formatter<spdlog::details::scoped_padder> >::__single_object std::make_unique<spdlog::details::b_formatter<spdlog::details::scoped_padder>, spdlog::details::padding_info&>(spdlog::details::padding_info&)
FUNC 43d0c 68 0 std::unique_ptr<spdlog::details::b_formatter<spdlog::details::scoped_padder>, std::default_delete<spdlog::details::b_formatter<spdlog::details::scoped_padder> > >::~unique_ptr()
FUNC 43d74 32 0 std::__uniq_ptr_data<spdlog::details::flag_formatter, std::default_delete<spdlog::details::flag_formatter>, true, true>::__uniq_ptr_impl<std::default_delete<spdlog::details::b_formatter<spdlog::details::scoped_padder> > >(spdlog::details::flag_formatter*, std::default_delete<spdlog::details::b_formatter<spdlog::details::scoped_padder> >&&)
FUNC 43da6 56 0 std::unique_ptr<spdlog::details::flag_formatter, std::default_delete<spdlog::details::flag_formatter> >::unique_ptr<spdlog::details::b_formatter<spdlog::details::scoped_padder>, std::default_delete<spdlog::details::b_formatter<spdlog::details::scoped_padder> >, void>(std::unique_ptr<spdlog::details::b_formatter<spdlog::details::scoped_padder>, std::default_delete<spdlog::details::b_formatter<spdlog::details::scoped_padder> > >&&)
FUNC 43dfc 5c 0 std::__detail::_MakeUniq<spdlog::details::B_formatter<spdlog::details::scoped_padder> >::__single_object std::make_unique<spdlog::details::B_formatter<spdlog::details::scoped_padder>, spdlog::details::padding_info&>(spdlog::details::padding_info&)
FUNC 43e58 68 0 std::unique_ptr<spdlog::details::B_formatter<spdlog::details::scoped_padder>, std::default_delete<spdlog::details::B_formatter<spdlog::details::scoped_padder> > >::~unique_ptr()
FUNC 43ec0 32 0 std::__uniq_ptr_data<spdlog::details::flag_formatter, std::default_delete<spdlog::details::flag_formatter>, true, true>::__uniq_ptr_impl<std::default_delete<spdlog::details::B_formatter<spdlog::details::scoped_padder> > >(spdlog::details::flag_formatter*, std::default_delete<spdlog::details::B_formatter<spdlog::details::scoped_padder> >&&)
FUNC 43ef2 56 0 std::unique_ptr<spdlog::details::flag_formatter, std::default_delete<spdlog::details::flag_formatter> >::unique_ptr<spdlog::details::B_formatter<spdlog::details::scoped_padder>, std::default_delete<spdlog::details::B_formatter<spdlog::details::scoped_padder> >, void>(std::unique_ptr<spdlog::details::B_formatter<spdlog::details::scoped_padder>, std::default_delete<spdlog::details::B_formatter<spdlog::details::scoped_padder> > >&&)
FUNC 43f48 5c 0 std::__detail::_MakeUniq<spdlog::details::c_formatter<spdlog::details::scoped_padder> >::__single_object std::make_unique<spdlog::details::c_formatter<spdlog::details::scoped_padder>, spdlog::details::padding_info&>(spdlog::details::padding_info&)
FUNC 43fa4 68 0 std::unique_ptr<spdlog::details::c_formatter<spdlog::details::scoped_padder>, std::default_delete<spdlog::details::c_formatter<spdlog::details::scoped_padder> > >::~unique_ptr()
FUNC 4400c 32 0 std::__uniq_ptr_data<spdlog::details::flag_formatter, std::default_delete<spdlog::details::flag_formatter>, true, true>::__uniq_ptr_impl<std::default_delete<spdlog::details::c_formatter<spdlog::details::scoped_padder> > >(spdlog::details::flag_formatter*, std::default_delete<spdlog::details::c_formatter<spdlog::details::scoped_padder> >&&)
FUNC 4403e 56 0 std::unique_ptr<spdlog::details::flag_formatter, std::default_delete<spdlog::details::flag_formatter> >::unique_ptr<spdlog::details::c_formatter<spdlog::details::scoped_padder>, std::default_delete<spdlog::details::c_formatter<spdlog::details::scoped_padder> >, void>(std::unique_ptr<spdlog::details::c_formatter<spdlog::details::scoped_padder>, std::default_delete<spdlog::details::c_formatter<spdlog::details::scoped_padder> > >&&)
FUNC 44094 5c 0 std::__detail::_MakeUniq<spdlog::details::C_formatter<spdlog::details::scoped_padder> >::__single_object std::make_unique<spdlog::details::C_formatter<spdlog::details::scoped_padder>, spdlog::details::padding_info&>(spdlog::details::padding_info&)
FUNC 440f0 68 0 std::unique_ptr<spdlog::details::C_formatter<spdlog::details::scoped_padder>, std::default_delete<spdlog::details::C_formatter<spdlog::details::scoped_padder> > >::~unique_ptr()
FUNC 44158 32 0 std::__uniq_ptr_data<spdlog::details::flag_formatter, std::default_delete<spdlog::details::flag_formatter>, true, true>::__uniq_ptr_impl<std::default_delete<spdlog::details::C_formatter<spdlog::details::scoped_padder> > >(spdlog::details::flag_formatter*, std::default_delete<spdlog::details::C_formatter<spdlog::details::scoped_padder> >&&)
FUNC 4418a 56 0 std::unique_ptr<spdlog::details::flag_formatter, std::default_delete<spdlog::details::flag_formatter> >::unique_ptr<spdlog::details::C_formatter<spdlog::details::scoped_padder>, std::default_delete<spdlog::details::C_formatter<spdlog::details::scoped_padder> >, void>(std::unique_ptr<spdlog::details::C_formatter<spdlog::details::scoped_padder>, std::default_delete<spdlog::details::C_formatter<spdlog::details::scoped_padder> > >&&)
FUNC 441e0 5c 0 std::__detail::_MakeUniq<spdlog::details::Y_formatter<spdlog::details::scoped_padder> >::__single_object std::make_unique<spdlog::details::Y_formatter<spdlog::details::scoped_padder>, spdlog::details::padding_info&>(spdlog::details::padding_info&)
FUNC 4423c 68 0 std::unique_ptr<spdlog::details::Y_formatter<spdlog::details::scoped_padder>, std::default_delete<spdlog::details::Y_formatter<spdlog::details::scoped_padder> > >::~unique_ptr()
FUNC 442a4 32 0 std::__uniq_ptr_data<spdlog::details::flag_formatter, std::default_delete<spdlog::details::flag_formatter>, true, true>::__uniq_ptr_impl<std::default_delete<spdlog::details::Y_formatter<spdlog::details::scoped_padder> > >(spdlog::details::flag_formatter*, std::default_delete<spdlog::details::Y_formatter<spdlog::details::scoped_padder> >&&)
FUNC 442d6 56 0 std::unique_ptr<spdlog::details::flag_formatter, std::default_delete<spdlog::details::flag_formatter> >::unique_ptr<spdlog::details::Y_formatter<spdlog::details::scoped_padder>, std::default_delete<spdlog::details::Y_formatter<spdlog::details::scoped_padder> >, void>(std::unique_ptr<spdlog::details::Y_formatter<spdlog::details::scoped_padder>, std::default_delete<spdlog::details::Y_formatter<spdlog::details::scoped_padder> > >&&)
FUNC 4432c 5c 0 std::__detail::_MakeUniq<spdlog::details::D_formatter<spdlog::details::scoped_padder> >::__single_object std::make_unique<spdlog::details::D_formatter<spdlog::details::scoped_padder>, spdlog::details::padding_info&>(spdlog::details::padding_info&)
FUNC 44388 68 0 std::unique_ptr<spdlog::details::D_formatter<spdlog::details::scoped_padder>, std::default_delete<spdlog::details::D_formatter<spdlog::details::scoped_padder> > >::~unique_ptr()
FUNC 443f0 32 0 std::__uniq_ptr_data<spdlog::details::flag_formatter, std::default_delete<spdlog::details::flag_formatter>, true, true>::__uniq_ptr_impl<std::default_delete<spdlog::details::D_formatter<spdlog::details::scoped_padder> > >(spdlog::details::flag_formatter*, std::default_delete<spdlog::details::D_formatter<spdlog::details::scoped_padder> >&&)
FUNC 44422 56 0 std::unique_ptr<spdlog::details::flag_formatter, std::default_delete<spdlog::details::flag_formatter> >::unique_ptr<spdlog::details::D_formatter<spdlog::details::scoped_padder>, std::default_delete<spdlog::details::D_formatter<spdlog::details::scoped_padder> >, void>(std::unique_ptr<spdlog::details::D_formatter<spdlog::details::scoped_padder>, std::default_delete<spdlog::details::D_formatter<spdlog::details::scoped_padder> > >&&)
FUNC 44478 5c 0 std::__detail::_MakeUniq<spdlog::details::m_formatter<spdlog::details::scoped_padder> >::__single_object std::make_unique<spdlog::details::m_formatter<spdlog::details::scoped_padder>, spdlog::details::padding_info&>(spdlog::details::padding_info&)
FUNC 444d4 68 0 std::unique_ptr<spdlog::details::m_formatter<spdlog::details::scoped_padder>, std::default_delete<spdlog::details::m_formatter<spdlog::details::scoped_padder> > >::~unique_ptr()
FUNC 4453c 32 0 std::__uniq_ptr_data<spdlog::details::flag_formatter, std::default_delete<spdlog::details::flag_formatter>, true, true>::__uniq_ptr_impl<std::default_delete<spdlog::details::m_formatter<spdlog::details::scoped_padder> > >(spdlog::details::flag_formatter*, std::default_delete<spdlog::details::m_formatter<spdlog::details::scoped_padder> >&&)
FUNC 4456e 56 0 std::unique_ptr<spdlog::details::flag_formatter, std::default_delete<spdlog::details::flag_formatter> >::unique_ptr<spdlog::details::m_formatter<spdlog::details::scoped_padder>, std::default_delete<spdlog::details::m_formatter<spdlog::details::scoped_padder> >, void>(std::unique_ptr<spdlog::details::m_formatter<spdlog::details::scoped_padder>, std::default_delete<spdlog::details::m_formatter<spdlog::details::scoped_padder> > >&&)
FUNC 445c4 5c 0 std::__detail::_MakeUniq<spdlog::details::d_formatter<spdlog::details::scoped_padder> >::__single_object std::make_unique<spdlog::details::d_formatter<spdlog::details::scoped_padder>, spdlog::details::padding_info&>(spdlog::details::padding_info&)
FUNC 44620 68 0 std::unique_ptr<spdlog::details::d_formatter<spdlog::details::scoped_padder>, std::default_delete<spdlog::details::d_formatter<spdlog::details::scoped_padder> > >::~unique_ptr()
FUNC 44688 32 0 std::__uniq_ptr_data<spdlog::details::flag_formatter, std::default_delete<spdlog::details::flag_formatter>, true, true>::__uniq_ptr_impl<std::default_delete<spdlog::details::d_formatter<spdlog::details::scoped_padder> > >(spdlog::details::flag_formatter*, std::default_delete<spdlog::details::d_formatter<spdlog::details::scoped_padder> >&&)
FUNC 446ba 56 0 std::unique_ptr<spdlog::details::flag_formatter, std::default_delete<spdlog::details::flag_formatter> >::unique_ptr<spdlog::details::d_formatter<spdlog::details::scoped_padder>, std::default_delete<spdlog::details::d_formatter<spdlog::details::scoped_padder> >, void>(std::unique_ptr<spdlog::details::d_formatter<spdlog::details::scoped_padder>, std::default_delete<spdlog::details::d_formatter<spdlog::details::scoped_padder> > >&&)
FUNC 44710 5c 0 std::__detail::_MakeUniq<spdlog::details::H_formatter<spdlog::details::scoped_padder> >::__single_object std::make_unique<spdlog::details::H_formatter<spdlog::details::scoped_padder>, spdlog::details::padding_info&>(spdlog::details::padding_info&)
FUNC 4476c 68 0 std::unique_ptr<spdlog::details::H_formatter<spdlog::details::scoped_padder>, std::default_delete<spdlog::details::H_formatter<spdlog::details::scoped_padder> > >::~unique_ptr()
FUNC 447d4 32 0 std::__uniq_ptr_data<spdlog::details::flag_formatter, std::default_delete<spdlog::details::flag_formatter>, true, true>::__uniq_ptr_impl<std::default_delete<spdlog::details::H_formatter<spdlog::details::scoped_padder> > >(spdlog::details::flag_formatter*, std::default_delete<spdlog::details::H_formatter<spdlog::details::scoped_padder> >&&)
FUNC 44806 56 0 std::unique_ptr<spdlog::details::flag_formatter, std::default_delete<spdlog::details::flag_formatter> >::unique_ptr<spdlog::details::H_formatter<spdlog::details::scoped_padder>, std::default_delete<spdlog::details::H_formatter<spdlog::details::scoped_padder> >, void>(std::unique_ptr<spdlog::details::H_formatter<spdlog::details::scoped_padder>, std::default_delete<spdlog::details::H_formatter<spdlog::details::scoped_padder> > >&&)
FUNC 4485c 5c 0 std::__detail::_MakeUniq<spdlog::details::I_formatter<spdlog::details::scoped_padder> >::__single_object std::make_unique<spdlog::details::I_formatter<spdlog::details::scoped_padder>, spdlog::details::padding_info&>(spdlog::details::padding_info&)
FUNC 448b8 68 0 std::unique_ptr<spdlog::details::I_formatter<spdlog::details::scoped_padder>, std::default_delete<spdlog::details::I_formatter<spdlog::details::scoped_padder> > >::~unique_ptr()
FUNC 44920 32 0 std::__uniq_ptr_data<spdlog::details::flag_formatter, std::default_delete<spdlog::details::flag_formatter>, true, true>::__uniq_ptr_impl<std::default_delete<spdlog::details::I_formatter<spdlog::details::scoped_padder> > >(spdlog::details::flag_formatter*, std::default_delete<spdlog::details::I_formatter<spdlog::details::scoped_padder> >&&)
FUNC 44952 56 0 std::unique_ptr<spdlog::details::flag_formatter, std::default_delete<spdlog::details::flag_formatter> >::unique_ptr<spdlog::details::I_formatter<spdlog::details::scoped_padder>, std::default_delete<spdlog::details::I_formatter<spdlog::details::scoped_padder> >, void>(std::unique_ptr<spdlog::details::I_formatter<spdlog::details::scoped_padder>, std::default_delete<spdlog::details::I_formatter<spdlog::details::scoped_padder> > >&&)
FUNC 449a8 5c 0 std::__detail::_MakeUniq<spdlog::details::M_formatter<spdlog::details::scoped_padder> >::__single_object std::make_unique<spdlog::details::M_formatter<spdlog::details::scoped_padder>, spdlog::details::padding_info&>(spdlog::details::padding_info&)
FUNC 44a04 68 0 std::unique_ptr<spdlog::details::M_formatter<spdlog::details::scoped_padder>, std::default_delete<spdlog::details::M_formatter<spdlog::details::scoped_padder> > >::~unique_ptr()
FUNC 44a6c 32 0 std::__uniq_ptr_data<spdlog::details::flag_formatter, std::default_delete<spdlog::details::flag_formatter>, true, true>::__uniq_ptr_impl<std::default_delete<spdlog::details::M_formatter<spdlog::details::scoped_padder> > >(spdlog::details::flag_formatter*, std::default_delete<spdlog::details::M_formatter<spdlog::details::scoped_padder> >&&)
FUNC 44a9e 56 0 std::unique_ptr<spdlog::details::flag_formatter, std::default_delete<spdlog::details::flag_formatter> >::unique_ptr<spdlog::details::M_formatter<spdlog::details::scoped_padder>, std::default_delete<spdlog::details::M_formatter<spdlog::details::scoped_padder> >, void>(std::unique_ptr<spdlog::details::M_formatter<spdlog::details::scoped_padder>, std::default_delete<spdlog::details::M_formatter<spdlog::details::scoped_padder> > >&&)
FUNC 44af4 5c 0 std::__detail::_MakeUniq<spdlog::details::S_formatter<spdlog::details::scoped_padder> >::__single_object std::make_unique<spdlog::details::S_formatter<spdlog::details::scoped_padder>, spdlog::details::padding_info&>(spdlog::details::padding_info&)
FUNC 44b50 68 0 std::unique_ptr<spdlog::details::S_formatter<spdlog::details::scoped_padder>, std::default_delete<spdlog::details::S_formatter<spdlog::details::scoped_padder> > >::~unique_ptr()
FUNC 44bb8 32 0 std::__uniq_ptr_data<spdlog::details::flag_formatter, std::default_delete<spdlog::details::flag_formatter>, true, true>::__uniq_ptr_impl<std::default_delete<spdlog::details::S_formatter<spdlog::details::scoped_padder> > >(spdlog::details::flag_formatter*, std::default_delete<spdlog::details::S_formatter<spdlog::details::scoped_padder> >&&)
FUNC 44bea 56 0 std::unique_ptr<spdlog::details::flag_formatter, std::default_delete<spdlog::details::flag_formatter> >::unique_ptr<spdlog::details::S_formatter<spdlog::details::scoped_padder>, std::default_delete<spdlog::details::S_formatter<spdlog::details::scoped_padder> >, void>(std::unique_ptr<spdlog::details::S_formatter<spdlog::details::scoped_padder>, std::default_delete<spdlog::details::S_formatter<spdlog::details::scoped_padder> > >&&)
FUNC 44c40 5c 0 std::__detail::_MakeUniq<spdlog::details::e_formatter<spdlog::details::scoped_padder> >::__single_object std::make_unique<spdlog::details::e_formatter<spdlog::details::scoped_padder>, spdlog::details::padding_info&>(spdlog::details::padding_info&)
FUNC 44c9c 68 0 std::unique_ptr<spdlog::details::e_formatter<spdlog::details::scoped_padder>, std::default_delete<spdlog::details::e_formatter<spdlog::details::scoped_padder> > >::~unique_ptr()
FUNC 44d04 32 0 std::__uniq_ptr_data<spdlog::details::flag_formatter, std::default_delete<spdlog::details::flag_formatter>, true, true>::__uniq_ptr_impl<std::default_delete<spdlog::details::e_formatter<spdlog::details::scoped_padder> > >(spdlog::details::flag_formatter*, std::default_delete<spdlog::details::e_formatter<spdlog::details::scoped_padder> >&&)
FUNC 44d36 56 0 std::unique_ptr<spdlog::details::flag_formatter, std::default_delete<spdlog::details::flag_formatter> >::unique_ptr<spdlog::details::e_formatter<spdlog::details::scoped_padder>, std::default_delete<spdlog::details::e_formatter<spdlog::details::scoped_padder> >, void>(std::unique_ptr<spdlog::details::e_formatter<spdlog::details::scoped_padder>, std::default_delete<spdlog::details::e_formatter<spdlog::details::scoped_padder> > >&&)
FUNC 44d8c 5c 0 std::__detail::_MakeUniq<spdlog::details::f_formatter<spdlog::details::scoped_padder> >::__single_object std::make_unique<spdlog::details::f_formatter<spdlog::details::scoped_padder>, spdlog::details::padding_info&>(spdlog::details::padding_info&)
FUNC 44de8 68 0 std::unique_ptr<spdlog::details::f_formatter<spdlog::details::scoped_padder>, std::default_delete<spdlog::details::f_formatter<spdlog::details::scoped_padder> > >::~unique_ptr()
FUNC 44e50 32 0 std::__uniq_ptr_data<spdlog::details::flag_formatter, std::default_delete<spdlog::details::flag_formatter>, true, true>::__uniq_ptr_impl<std::default_delete<spdlog::details::f_formatter<spdlog::details::scoped_padder> > >(spdlog::details::flag_formatter*, std::default_delete<spdlog::details::f_formatter<spdlog::details::scoped_padder> >&&)
FUNC 44e82 56 0 std::unique_ptr<spdlog::details::flag_formatter, std::default_delete<spdlog::details::flag_formatter> >::unique_ptr<spdlog::details::f_formatter<spdlog::details::scoped_padder>, std::default_delete<spdlog::details::f_formatter<spdlog::details::scoped_padder> >, void>(std::unique_ptr<spdlog::details::f_formatter<spdlog::details::scoped_padder>, std::default_delete<spdlog::details::f_formatter<spdlog::details::scoped_padder> > >&&)
FUNC 44ed8 5c 0 std::__detail::_MakeUniq<spdlog::details::F_formatter<spdlog::details::scoped_padder> >::__single_object std::make_unique<spdlog::details::F_formatter<spdlog::details::scoped_padder>, spdlog::details::padding_info&>(spdlog::details::padding_info&)
FUNC 44f34 68 0 std::unique_ptr<spdlog::details::F_formatter<spdlog::details::scoped_padder>, std::default_delete<spdlog::details::F_formatter<spdlog::details::scoped_padder> > >::~unique_ptr()
FUNC 44f9c 32 0 std::__uniq_ptr_data<spdlog::details::flag_formatter, std::default_delete<spdlog::details::flag_formatter>, true, true>::__uniq_ptr_impl<std::default_delete<spdlog::details::F_formatter<spdlog::details::scoped_padder> > >(spdlog::details::flag_formatter*, std::default_delete<spdlog::details::F_formatter<spdlog::details::scoped_padder> >&&)
FUNC 44fce 56 0 std::unique_ptr<spdlog::details::flag_formatter, std::default_delete<spdlog::details::flag_formatter> >::unique_ptr<spdlog::details::F_formatter<spdlog::details::scoped_padder>, std::default_delete<spdlog::details::F_formatter<spdlog::details::scoped_padder> >, void>(std::unique_ptr<spdlog::details::F_formatter<spdlog::details::scoped_padder>, std::default_delete<spdlog::details::F_formatter<spdlog::details::scoped_padder> > >&&)
FUNC 45024 5c 0 std::__detail::_MakeUniq<spdlog::details::E_formatter<spdlog::details::scoped_padder> >::__single_object std::make_unique<spdlog::details::E_formatter<spdlog::details::scoped_padder>, spdlog::details::padding_info&>(spdlog::details::padding_info&)
FUNC 45080 68 0 std::unique_ptr<spdlog::details::E_formatter<spdlog::details::scoped_padder>, std::default_delete<spdlog::details::E_formatter<spdlog::details::scoped_padder> > >::~unique_ptr()
FUNC 450e8 32 0 std::__uniq_ptr_data<spdlog::details::flag_formatter, std::default_delete<spdlog::details::flag_formatter>, true, true>::__uniq_ptr_impl<std::default_delete<spdlog::details::E_formatter<spdlog::details::scoped_padder> > >(spdlog::details::flag_formatter*, std::default_delete<spdlog::details::E_formatter<spdlog::details::scoped_padder> >&&)
FUNC 4511a 56 0 std::unique_ptr<spdlog::details::flag_formatter, std::default_delete<spdlog::details::flag_formatter> >::unique_ptr<spdlog::details::E_formatter<spdlog::details::scoped_padder>, std::default_delete<spdlog::details::E_formatter<spdlog::details::scoped_padder> >, void>(std::unique_ptr<spdlog::details::E_formatter<spdlog::details::scoped_padder>, std::default_delete<spdlog::details::E_formatter<spdlog::details::scoped_padder> > >&&)
FUNC 45170 5c 0 std::__detail::_MakeUniq<spdlog::details::p_formatter<spdlog::details::scoped_padder> >::__single_object std::make_unique<spdlog::details::p_formatter<spdlog::details::scoped_padder>, spdlog::details::padding_info&>(spdlog::details::padding_info&)
FUNC 451cc 68 0 std::unique_ptr<spdlog::details::p_formatter<spdlog::details::scoped_padder>, std::default_delete<spdlog::details::p_formatter<spdlog::details::scoped_padder> > >::~unique_ptr()
FUNC 45234 32 0 std::__uniq_ptr_data<spdlog::details::flag_formatter, std::default_delete<spdlog::details::flag_formatter>, true, true>::__uniq_ptr_impl<std::default_delete<spdlog::details::p_formatter<spdlog::details::scoped_padder> > >(spdlog::details::flag_formatter*, std::default_delete<spdlog::details::p_formatter<spdlog::details::scoped_padder> >&&)
FUNC 45266 56 0 std::unique_ptr<spdlog::details::flag_formatter, std::default_delete<spdlog::details::flag_formatter> >::unique_ptr<spdlog::details::p_formatter<spdlog::details::scoped_padder>, std::default_delete<spdlog::details::p_formatter<spdlog::details::scoped_padder> >, void>(std::unique_ptr<spdlog::details::p_formatter<spdlog::details::scoped_padder>, std::default_delete<spdlog::details::p_formatter<spdlog::details::scoped_padder> > >&&)
FUNC 452bc 5c 0 std::__detail::_MakeUniq<spdlog::details::r_formatter<spdlog::details::scoped_padder> >::__single_object std::make_unique<spdlog::details::r_formatter<spdlog::details::scoped_padder>, spdlog::details::padding_info&>(spdlog::details::padding_info&)
FUNC 45318 68 0 std::unique_ptr<spdlog::details::r_formatter<spdlog::details::scoped_padder>, std::default_delete<spdlog::details::r_formatter<spdlog::details::scoped_padder> > >::~unique_ptr()
FUNC 45380 32 0 std::__uniq_ptr_data<spdlog::details::flag_formatter, std::default_delete<spdlog::details::flag_formatter>, true, true>::__uniq_ptr_impl<std::default_delete<spdlog::details::r_formatter<spdlog::details::scoped_padder> > >(spdlog::details::flag_formatter*, std::default_delete<spdlog::details::r_formatter<spdlog::details::scoped_padder> >&&)
FUNC 453b2 56 0 std::unique_ptr<spdlog::details::flag_formatter, std::default_delete<spdlog::details::flag_formatter> >::unique_ptr<spdlog::details::r_formatter<spdlog::details::scoped_padder>, std::default_delete<spdlog::details::r_formatter<spdlog::details::scoped_padder> >, void>(std::unique_ptr<spdlog::details::r_formatter<spdlog::details::scoped_padder>, std::default_delete<spdlog::details::r_formatter<spdlog::details::scoped_padder> > >&&)
FUNC 45408 5c 0 std::__detail::_MakeUniq<spdlog::details::R_formatter<spdlog::details::scoped_padder> >::__single_object std::make_unique<spdlog::details::R_formatter<spdlog::details::scoped_padder>, spdlog::details::padding_info&>(spdlog::details::padding_info&)
FUNC 45464 68 0 std::unique_ptr<spdlog::details::R_formatter<spdlog::details::scoped_padder>, std::default_delete<spdlog::details::R_formatter<spdlog::details::scoped_padder> > >::~unique_ptr()
FUNC 454cc 32 0 std::__uniq_ptr_data<spdlog::details::flag_formatter, std::default_delete<spdlog::details::flag_formatter>, true, true>::__uniq_ptr_impl<std::default_delete<spdlog::details::R_formatter<spdlog::details::scoped_padder> > >(spdlog::details::flag_formatter*, std::default_delete<spdlog::details::R_formatter<spdlog::details::scoped_padder> >&&)
FUNC 454fe 56 0 std::unique_ptr<spdlog::details::flag_formatter, std::default_delete<spdlog::details::flag_formatter> >::unique_ptr<spdlog::details::R_formatter<spdlog::details::scoped_padder>, std::default_delete<spdlog::details::R_formatter<spdlog::details::scoped_padder> >, void>(std::unique_ptr<spdlog::details::R_formatter<spdlog::details::scoped_padder>, std::default_delete<spdlog::details::R_formatter<spdlog::details::scoped_padder> > >&&)
FUNC 45554 5c 0 std::__detail::_MakeUniq<spdlog::details::T_formatter<spdlog::details::scoped_padder> >::__single_object std::make_unique<spdlog::details::T_formatter<spdlog::details::scoped_padder>, spdlog::details::padding_info&>(spdlog::details::padding_info&)
FUNC 455b0 68 0 std::unique_ptr<spdlog::details::T_formatter<spdlog::details::scoped_padder>, std::default_delete<spdlog::details::T_formatter<spdlog::details::scoped_padder> > >::~unique_ptr()
FUNC 45618 32 0 std::__uniq_ptr_data<spdlog::details::flag_formatter, std::default_delete<spdlog::details::flag_formatter>, true, true>::__uniq_ptr_impl<std::default_delete<spdlog::details::T_formatter<spdlog::details::scoped_padder> > >(spdlog::details::flag_formatter*, std::default_delete<spdlog::details::T_formatter<spdlog::details::scoped_padder> >&&)
FUNC 4564a 56 0 std::unique_ptr<spdlog::details::flag_formatter, std::default_delete<spdlog::details::flag_formatter> >::unique_ptr<spdlog::details::T_formatter<spdlog::details::scoped_padder>, std::default_delete<spdlog::details::T_formatter<spdlog::details::scoped_padder> >, void>(std::unique_ptr<spdlog::details::T_formatter<spdlog::details::scoped_padder>, std::default_delete<spdlog::details::T_formatter<spdlog::details::scoped_padder> > >&&)
FUNC 456a0 91 0 std::__detail::_MakeUniq<spdlog::details::z_formatter<spdlog::details::scoped_padder> >::__single_object std::make_unique<spdlog::details::z_formatter<spdlog::details::scoped_padder>, spdlog::details::padding_info&>(spdlog::details::padding_info&)
FUNC 45732 68 0 std::unique_ptr<spdlog::details::z_formatter<spdlog::details::scoped_padder>, std::default_delete<spdlog::details::z_formatter<spdlog::details::scoped_padder> > >::~unique_ptr()
FUNC 4579a 32 0 std::__uniq_ptr_data<spdlog::details::flag_formatter, std::default_delete<spdlog::details::flag_formatter>, true, true>::__uniq_ptr_impl<std::default_delete<spdlog::details::z_formatter<spdlog::details::scoped_padder> > >(spdlog::details::flag_formatter*, std::default_delete<spdlog::details::z_formatter<spdlog::details::scoped_padder> >&&)
FUNC 457cc 56 0 std::unique_ptr<spdlog::details::flag_formatter, std::default_delete<spdlog::details::flag_formatter> >::unique_ptr<spdlog::details::z_formatter<spdlog::details::scoped_padder>, std::default_delete<spdlog::details::z_formatter<spdlog::details::scoped_padder> >, void>(std::unique_ptr<spdlog::details::z_formatter<spdlog::details::scoped_padder>, std::default_delete<spdlog::details::z_formatter<spdlog::details::scoped_padder> > >&&)
FUNC 45822 5c 0 std::__detail::_MakeUniq<spdlog::details::pid_formatter<spdlog::details::scoped_padder> >::__single_object std::make_unique<spdlog::details::pid_formatter<spdlog::details::scoped_padder>, spdlog::details::padding_info&>(spdlog::details::padding_info&)
FUNC 4587e 68 0 std::unique_ptr<spdlog::details::pid_formatter<spdlog::details::scoped_padder>, std::default_delete<spdlog::details::pid_formatter<spdlog::details::scoped_padder> > >::~unique_ptr()
FUNC 458e6 32 0 std::__uniq_ptr_data<spdlog::details::flag_formatter, std::default_delete<spdlog::details::flag_formatter>, true, true>::__uniq_ptr_impl<std::default_delete<spdlog::details::pid_formatter<spdlog::details::scoped_padder> > >(spdlog::details::flag_formatter*, std::default_delete<spdlog::details::pid_formatter<spdlog::details::scoped_padder> >&&)
FUNC 45918 56 0 std::unique_ptr<spdlog::details::flag_formatter, std::default_delete<spdlog::details::flag_formatter> >::unique_ptr<spdlog::details::pid_formatter<spdlog::details::scoped_padder>, std::default_delete<spdlog::details::pid_formatter<spdlog::details::scoped_padder> >, void>(std::unique_ptr<spdlog::details::pid_formatter<spdlog::details::scoped_padder>, std::default_delete<spdlog::details::pid_formatter<spdlog::details::scoped_padder> > >&&)
FUNC 4596e 5c 0 std::__detail::_MakeUniq<spdlog::details::color_start_formatter>::__single_object std::make_unique<spdlog::details::color_start_formatter, spdlog::details::padding_info&>(spdlog::details::padding_info&)
FUNC 459ca 68 0 std::unique_ptr<spdlog::details::color_start_formatter, std::default_delete<spdlog::details::color_start_formatter> >::~unique_ptr()
FUNC 45a32 32 0 std::__uniq_ptr_data<spdlog::details::flag_formatter, std::default_delete<spdlog::details::flag_formatter>, true, true>::__uniq_ptr_impl<std::default_delete<spdlog::details::color_start_formatter> >(spdlog::details::flag_formatter*, std::default_delete<spdlog::details::color_start_formatter>&&)
FUNC 45a64 56 0 std::unique_ptr<spdlog::details::flag_formatter, std::default_delete<spdlog::details::flag_formatter> >::unique_ptr<spdlog::details::color_start_formatter, std::default_delete<spdlog::details::color_start_formatter>, void>(std::unique_ptr<spdlog::details::color_start_formatter, std::default_delete<spdlog::details::color_start_formatter> >&&)
FUNC 45aba 5c 0 std::__detail::_MakeUniq<spdlog::details::color_stop_formatter>::__single_object std::make_unique<spdlog::details::color_stop_formatter, spdlog::details::padding_info&>(spdlog::details::padding_info&)
FUNC 45b16 68 0 std::unique_ptr<spdlog::details::color_stop_formatter, std::default_delete<spdlog::details::color_stop_formatter> >::~unique_ptr()
FUNC 45b7e 32 0 std::__uniq_ptr_data<spdlog::details::flag_formatter, std::default_delete<spdlog::details::flag_formatter>, true, true>::__uniq_ptr_impl<std::default_delete<spdlog::details::color_stop_formatter> >(spdlog::details::flag_formatter*, std::default_delete<spdlog::details::color_stop_formatter>&&)
FUNC 45bb0 56 0 std::unique_ptr<spdlog::details::flag_formatter, std::default_delete<spdlog::details::flag_formatter> >::unique_ptr<spdlog::details::color_stop_formatter, std::default_delete<spdlog::details::color_stop_formatter>, void>(std::unique_ptr<spdlog::details::color_stop_formatter, std::default_delete<spdlog::details::color_stop_formatter> >&&)
FUNC 45c06 5c 0 std::__detail::_MakeUniq<spdlog::details::source_location_formatter<spdlog::details::scoped_padder> >::__single_object std::make_unique<spdlog::details::source_location_formatter<spdlog::details::scoped_padder>, spdlog::details::padding_info&>(spdlog::details::padding_info&)
FUNC 45c62 68 0 std::unique_ptr<spdlog::details::source_location_formatter<spdlog::details::scoped_padder>, std::default_delete<spdlog::details::source_location_formatter<spdlog::details::scoped_padder> > >::~unique_ptr()
FUNC 45cca 32 0 std::__uniq_ptr_data<spdlog::details::flag_formatter, std::default_delete<spdlog::details::flag_formatter>, true, true>::__uniq_ptr_impl<std::default_delete<spdlog::details::source_location_formatter<spdlog::details::scoped_padder> > >(spdlog::details::flag_formatter*, std::default_delete<spdlog::details::source_location_formatter<spdlog::details::scoped_padder> >&&)
FUNC 45cfc 56 0 std::unique_ptr<spdlog::details::flag_formatter, std::default_delete<spdlog::details::flag_formatter> >::unique_ptr<spdlog::details::source_location_formatter<spdlog::details::scoped_padder>, std::default_delete<spdlog::details::source_location_formatter<spdlog::details::scoped_padder> >, void>(std::unique_ptr<spdlog::details::source_location_formatter<spdlog::details::scoped_padder>, std::default_delete<spdlog::details::source_location_formatter<spdlog::details::scoped_padder> > >&&)
FUNC 45d52 5c 0 std::__detail::_MakeUniq<spdlog::details::short_filename_formatter<spdlog::details::scoped_padder> >::__single_object std::make_unique<spdlog::details::short_filename_formatter<spdlog::details::scoped_padder>, spdlog::details::padding_info&>(spdlog::details::padding_info&)
FUNC 45dae 68 0 std::unique_ptr<spdlog::details::short_filename_formatter<spdlog::details::scoped_padder>, std::default_delete<spdlog::details::short_filename_formatter<spdlog::details::scoped_padder> > >::~unique_ptr()
FUNC 45e16 32 0 std::__uniq_ptr_data<spdlog::details::flag_formatter, std::default_delete<spdlog::details::flag_formatter>, true, true>::__uniq_ptr_impl<std::default_delete<spdlog::details::short_filename_formatter<spdlog::details::scoped_padder> > >(spdlog::details::flag_formatter*, std::default_delete<spdlog::details::short_filename_formatter<spdlog::details::scoped_padder> >&&)
FUNC 45e48 56 0 std::unique_ptr<spdlog::details::flag_formatter, std::default_delete<spdlog::details::flag_formatter> >::unique_ptr<spdlog::details::short_filename_formatter<spdlog::details::scoped_padder>, std::default_delete<spdlog::details::short_filename_formatter<spdlog::details::scoped_padder> >, void>(std::unique_ptr<spdlog::details::short_filename_formatter<spdlog::details::scoped_padder>, std::default_delete<spdlog::details::short_filename_formatter<spdlog::details::scoped_padder> > >&&)
FUNC 45e9e 5c 0 std::__detail::_MakeUniq<spdlog::details::source_filename_formatter<spdlog::details::scoped_padder> >::__single_object std::make_unique<spdlog::details::source_filename_formatter<spdlog::details::scoped_padder>, spdlog::details::padding_info&>(spdlog::details::padding_info&)
FUNC 45efa 68 0 std::unique_ptr<spdlog::details::source_filename_formatter<spdlog::details::scoped_padder>, std::default_delete<spdlog::details::source_filename_formatter<spdlog::details::scoped_padder> > >::~unique_ptr()
FUNC 45f62 32 0 std::__uniq_ptr_data<spdlog::details::flag_formatter, std::default_delete<spdlog::details::flag_formatter>, true, true>::__uniq_ptr_impl<std::default_delete<spdlog::details::source_filename_formatter<spdlog::details::scoped_padder> > >(spdlog::details::flag_formatter*, std::default_delete<spdlog::details::source_filename_formatter<spdlog::details::scoped_padder> >&&)
FUNC 45f94 56 0 std::unique_ptr<spdlog::details::flag_formatter, std::default_delete<spdlog::details::flag_formatter> >::unique_ptr<spdlog::details::source_filename_formatter<spdlog::details::scoped_padder>, std::default_delete<spdlog::details::source_filename_formatter<spdlog::details::scoped_padder> >, void>(std::unique_ptr<spdlog::details::source_filename_formatter<spdlog::details::scoped_padder>, std::default_delete<spdlog::details::source_filename_formatter<spdlog::details::scoped_padder> > >&&)
FUNC 45fea 5c 0 std::__detail::_MakeUniq<spdlog::details::source_linenum_formatter<spdlog::details::scoped_padder> >::__single_object std::make_unique<spdlog::details::source_linenum_formatter<spdlog::details::scoped_padder>, spdlog::details::padding_info&>(spdlog::details::padding_info&)
FUNC 46046 68 0 std::unique_ptr<spdlog::details::source_linenum_formatter<spdlog::details::scoped_padder>, std::default_delete<spdlog::details::source_linenum_formatter<spdlog::details::scoped_padder> > >::~unique_ptr()
FUNC 460ae 32 0 std::__uniq_ptr_data<spdlog::details::flag_formatter, std::default_delete<spdlog::details::flag_formatter>, true, true>::__uniq_ptr_impl<std::default_delete<spdlog::details::source_linenum_formatter<spdlog::details::scoped_padder> > >(spdlog::details::flag_formatter*, std::default_delete<spdlog::details::source_linenum_formatter<spdlog::details::scoped_padder> >&&)
FUNC 460e0 56 0 std::unique_ptr<spdlog::details::flag_formatter, std::default_delete<spdlog::details::flag_formatter> >::unique_ptr<spdlog::details::source_linenum_formatter<spdlog::details::scoped_padder>, std::default_delete<spdlog::details::source_linenum_formatter<spdlog::details::scoped_padder> >, void>(std::unique_ptr<spdlog::details::source_linenum_formatter<spdlog::details::scoped_padder>, std::default_delete<spdlog::details::source_linenum_formatter<spdlog::details::scoped_padder> > >&&)
FUNC 46136 5c 0 std::__detail::_MakeUniq<spdlog::details::source_funcname_formatter<spdlog::details::scoped_padder> >::__single_object std::make_unique<spdlog::details::source_funcname_formatter<spdlog::details::scoped_padder>, spdlog::details::padding_info&>(spdlog::details::padding_info&)
FUNC 46192 68 0 std::unique_ptr<spdlog::details::source_funcname_formatter<spdlog::details::scoped_padder>, std::default_delete<spdlog::details::source_funcname_formatter<spdlog::details::scoped_padder> > >::~unique_ptr()
FUNC 461fa 32 0 std::__uniq_ptr_data<spdlog::details::flag_formatter, std::default_delete<spdlog::details::flag_formatter>, true, true>::__uniq_ptr_impl<std::default_delete<spdlog::details::source_funcname_formatter<spdlog::details::scoped_padder> > >(spdlog::details::flag_formatter*, std::default_delete<spdlog::details::source_funcname_formatter<spdlog::details::scoped_padder> >&&)
FUNC 4622c 56 0 std::unique_ptr<spdlog::details::flag_formatter, std::default_delete<spdlog::details::flag_formatter> >::unique_ptr<spdlog::details::source_funcname_formatter<spdlog::details::scoped_padder>, std::default_delete<spdlog::details::source_funcname_formatter<spdlog::details::scoped_padder> >, void>(std::unique_ptr<spdlog::details::source_funcname_formatter<spdlog::details::scoped_padder>, std::default_delete<spdlog::details::source_funcname_formatter<spdlog::details::scoped_padder> > >&&)
FUNC 46282 57 0 std::__detail::_MakeUniq<spdlog::details::ch_formatter>::__single_object std::make_unique<spdlog::details::ch_formatter, char>(char&&)
FUNC 462da 68 0 std::unique_ptr<spdlog::details::ch_formatter, std::default_delete<spdlog::details::ch_formatter> >::~unique_ptr()
FUNC 46342 32 0 std::__uniq_ptr_data<spdlog::details::flag_formatter, std::default_delete<spdlog::details::flag_formatter>, true, true>::__uniq_ptr_impl<std::default_delete<spdlog::details::ch_formatter> >(spdlog::details::flag_formatter*, std::default_delete<spdlog::details::ch_formatter>&&)
FUNC 46374 56 0 std::unique_ptr<spdlog::details::flag_formatter, std::default_delete<spdlog::details::flag_formatter> >::unique_ptr<spdlog::details::ch_formatter, std::default_delete<spdlog::details::ch_formatter>, void>(std::unique_ptr<spdlog::details::ch_formatter, std::default_delete<spdlog::details::ch_formatter> >&&)
FUNC 463ca 5c 0 std::__detail::_MakeUniq<spdlog::details::elapsed_formatter<spdlog::details::scoped_padder, std::chrono::duration<long, std::ratio<1l, 1000000000l> > > >::__single_object std::make_unique<spdlog::details::elapsed_formatter<spdlog::details::scoped_padder, std::chrono::duration<long, std::ratio<1l, 1000000000l> > >, spdlog::details::padding_info&>(spdlog::details::padding_info&)
FUNC 46426 68 0 std::unique_ptr<spdlog::details::elapsed_formatter<spdlog::details::scoped_padder, std::chrono::duration<long, std::ratio<1l, 1000000000l> > >, std::default_delete<spdlog::details::elapsed_formatter<spdlog::details::scoped_padder, std::chrono::duration<long, std::ratio<1l, 1000000000l> > > > >::~unique_ptr()
FUNC 4648e 32 0 std::__uniq_ptr_data<spdlog::details::flag_formatter, std::default_delete<spdlog::details::flag_formatter>, true, true>::__uniq_ptr_impl<std::default_delete<spdlog::details::elapsed_formatter<spdlog::details::scoped_padder, std::chrono::duration<long, std::ratio<1l, 1000000000l> > > > >(spdlog::details::flag_formatter*, std::default_delete<spdlog::details::elapsed_formatter<spdlog::details::scoped_padder, std::chrono::duration<long, std::ratio<1l, 1000000000l> > > >&&)
FUNC 464c0 56 0 std::unique_ptr<spdlog::details::flag_formatter, std::default_delete<spdlog::details::flag_formatter> >::unique_ptr<spdlog::details::elapsed_formatter<spdlog::details::scoped_padder, std::chrono::duration<long, std::ratio<1l, 1000000000l> > >, std::default_delete<spdlog::details::elapsed_formatter<spdlog::details::scoped_padder, std::chrono::duration<long, std::ratio<1l, 1000000000l> > > >, void>(std::unique_ptr<spdlog::details::elapsed_formatter<spdlog::details::scoped_padder, std::chrono::duration<long, std::ratio<1l, 1000000000l> > >, std::default_delete<spdlog::details::elapsed_formatter<spdlog::details::scoped_padder, std::chrono::duration<long, std::ratio<1l, 1000000000l> > > > >&&)
FUNC 46516 5c 0 std::__detail::_MakeUniq<spdlog::details::elapsed_formatter<spdlog::details::scoped_padder, std::chrono::duration<long, std::ratio<1l, 1000000l> > > >::__single_object std::make_unique<spdlog::details::elapsed_formatter<spdlog::details::scoped_padder, std::chrono::duration<long, std::ratio<1l, 1000000l> > >, spdlog::details::padding_info&>(spdlog::details::padding_info&)
FUNC 46572 68 0 std::unique_ptr<spdlog::details::elapsed_formatter<spdlog::details::scoped_padder, std::chrono::duration<long, std::ratio<1l, 1000000l> > >, std::default_delete<spdlog::details::elapsed_formatter<spdlog::details::scoped_padder, std::chrono::duration<long, std::ratio<1l, 1000000l> > > > >::~unique_ptr()
FUNC 465da 32 0 std::__uniq_ptr_data<spdlog::details::flag_formatter, std::default_delete<spdlog::details::flag_formatter>, true, true>::__uniq_ptr_impl<std::default_delete<spdlog::details::elapsed_formatter<spdlog::details::scoped_padder, std::chrono::duration<long, std::ratio<1l, 1000000l> > > > >(spdlog::details::flag_formatter*, std::default_delete<spdlog::details::elapsed_formatter<spdlog::details::scoped_padder, std::chrono::duration<long, std::ratio<1l, 1000000l> > > >&&)
FUNC 4660c 56 0 std::unique_ptr<spdlog::details::flag_formatter, std::default_delete<spdlog::details::flag_formatter> >::unique_ptr<spdlog::details::elapsed_formatter<spdlog::details::scoped_padder, std::chrono::duration<long, std::ratio<1l, 1000000l> > >, std::default_delete<spdlog::details::elapsed_formatter<spdlog::details::scoped_padder, std::chrono::duration<long, std::ratio<1l, 1000000l> > > >, void>(std::unique_ptr<spdlog::details::elapsed_formatter<spdlog::details::scoped_padder, std::chrono::duration<long, std::ratio<1l, 1000000l> > >, std::default_delete<spdlog::details::elapsed_formatter<spdlog::details::scoped_padder, std::chrono::duration<long, std::ratio<1l, 1000000l> > > > >&&)
FUNC 46662 5c 0 std::__detail::_MakeUniq<spdlog::details::elapsed_formatter<spdlog::details::scoped_padder, std::chrono::duration<long, std::ratio<1l, 1000l> > > >::__single_object std::make_unique<spdlog::details::elapsed_formatter<spdlog::details::scoped_padder, std::chrono::duration<long, std::ratio<1l, 1000l> > >, spdlog::details::padding_info&>(spdlog::details::padding_info&)
FUNC 466be 68 0 std::unique_ptr<spdlog::details::elapsed_formatter<spdlog::details::scoped_padder, std::chrono::duration<long, std::ratio<1l, 1000l> > >, std::default_delete<spdlog::details::elapsed_formatter<spdlog::details::scoped_padder, std::chrono::duration<long, std::ratio<1l, 1000l> > > > >::~unique_ptr()
FUNC 46726 32 0 std::__uniq_ptr_data<spdlog::details::flag_formatter, std::default_delete<spdlog::details::flag_formatter>, true, true>::__uniq_ptr_impl<std::default_delete<spdlog::details::elapsed_formatter<spdlog::details::scoped_padder, std::chrono::duration<long, std::ratio<1l, 1000l> > > > >(spdlog::details::flag_formatter*, std::default_delete<spdlog::details::elapsed_formatter<spdlog::details::scoped_padder, std::chrono::duration<long, std::ratio<1l, 1000l> > > >&&)
FUNC 46758 56 0 std::unique_ptr<spdlog::details::flag_formatter, std::default_delete<spdlog::details::flag_formatter> >::unique_ptr<spdlog::details::elapsed_formatter<spdlog::details::scoped_padder, std::chrono::duration<long, std::ratio<1l, 1000l> > >, std::default_delete<spdlog::details::elapsed_formatter<spdlog::details::scoped_padder, std::chrono::duration<long, std::ratio<1l, 1000l> > > >, void>(std::unique_ptr<spdlog::details::elapsed_formatter<spdlog::details::scoped_padder, std::chrono::duration<long, std::ratio<1l, 1000l> > >, std::default_delete<spdlog::details::elapsed_formatter<spdlog::details::scoped_padder, std::chrono::duration<long, std::ratio<1l, 1000l> > > > >&&)
FUNC 467ae 5c 0 std::__detail::_MakeUniq<spdlog::details::elapsed_formatter<spdlog::details::scoped_padder, std::chrono::duration<long, std::ratio<1l, 1l> > > >::__single_object std::make_unique<spdlog::details::elapsed_formatter<spdlog::details::scoped_padder, std::chrono::duration<long, std::ratio<1l, 1l> > >, spdlog::details::padding_info&>(spdlog::details::padding_info&)
FUNC 4680a 68 0 std::unique_ptr<spdlog::details::elapsed_formatter<spdlog::details::scoped_padder, std::chrono::duration<long, std::ratio<1l, 1l> > >, std::default_delete<spdlog::details::elapsed_formatter<spdlog::details::scoped_padder, std::chrono::duration<long, std::ratio<1l, 1l> > > > >::~unique_ptr()
FUNC 46872 32 0 std::__uniq_ptr_data<spdlog::details::flag_formatter, std::default_delete<spdlog::details::flag_formatter>, true, true>::__uniq_ptr_impl<std::default_delete<spdlog::details::elapsed_formatter<spdlog::details::scoped_padder, std::chrono::duration<long, std::ratio<1l, 1l> > > > >(spdlog::details::flag_formatter*, std::default_delete<spdlog::details::elapsed_formatter<spdlog::details::scoped_padder, std::chrono::duration<long, std::ratio<1l, 1l> > > >&&)
FUNC 468a4 56 0 std::unique_ptr<spdlog::details::flag_formatter, std::default_delete<spdlog::details::flag_formatter> >::unique_ptr<spdlog::details::elapsed_formatter<spdlog::details::scoped_padder, std::chrono::duration<long, std::ratio<1l, 1l> > >, std::default_delete<spdlog::details::elapsed_formatter<spdlog::details::scoped_padder, std::chrono::duration<long, std::ratio<1l, 1l> > > >, void>(std::unique_ptr<spdlog::details::elapsed_formatter<spdlog::details::scoped_padder, std::chrono::duration<long, std::ratio<1l, 1l> > >, std::default_delete<spdlog::details::elapsed_formatter<spdlog::details::scoped_padder, std::chrono::duration<long, std::ratio<1l, 1l> > > > >&&)
FUNC 468fa 5c 0 std::__detail::_MakeUniq<spdlog::details::mdc_formatter<spdlog::details::scoped_padder> >::__single_object std::make_unique<spdlog::details::mdc_formatter<spdlog::details::scoped_padder>, spdlog::details::padding_info&>(spdlog::details::padding_info&)
FUNC 46956 68 0 std::unique_ptr<spdlog::details::mdc_formatter<spdlog::details::scoped_padder>, std::default_delete<spdlog::details::mdc_formatter<spdlog::details::scoped_padder> > >::~unique_ptr()
FUNC 469be 32 0 std::__uniq_ptr_data<spdlog::details::flag_formatter, std::default_delete<spdlog::details::flag_formatter>, true, true>::__uniq_ptr_impl<std::default_delete<spdlog::details::mdc_formatter<spdlog::details::scoped_padder> > >(spdlog::details::flag_formatter*, std::default_delete<spdlog::details::mdc_formatter<spdlog::details::scoped_padder> >&&)
FUNC 469f0 56 0 std::unique_ptr<spdlog::details::flag_formatter, std::default_delete<spdlog::details::flag_formatter> >::unique_ptr<spdlog::details::mdc_formatter<spdlog::details::scoped_padder>, std::default_delete<spdlog::details::mdc_formatter<spdlog::details::scoped_padder> >, void>(std::unique_ptr<spdlog::details::mdc_formatter<spdlog::details::scoped_padder>, std::default_delete<spdlog::details::mdc_formatter<spdlog::details::scoped_padder> > >&&)
FUNC 46a46 5c 0 std::__detail::_MakeUniq<spdlog::details::name_formatter<spdlog::details::null_scoped_padder> >::__single_object std::make_unique<spdlog::details::name_formatter<spdlog::details::null_scoped_padder>, spdlog::details::padding_info&>(spdlog::details::padding_info&)
FUNC 46aa2 68 0 std::unique_ptr<spdlog::details::name_formatter<spdlog::details::null_scoped_padder>, std::default_delete<spdlog::details::name_formatter<spdlog::details::null_scoped_padder> > >::~unique_ptr()
FUNC 46b0a 32 0 std::__uniq_ptr_data<spdlog::details::flag_formatter, std::default_delete<spdlog::details::flag_formatter>, true, true>::__uniq_ptr_impl<std::default_delete<spdlog::details::name_formatter<spdlog::details::null_scoped_padder> > >(spdlog::details::flag_formatter*, std::default_delete<spdlog::details::name_formatter<spdlog::details::null_scoped_padder> >&&)
FUNC 46b3c 56 0 std::unique_ptr<spdlog::details::flag_formatter, std::default_delete<spdlog::details::flag_formatter> >::unique_ptr<spdlog::details::name_formatter<spdlog::details::null_scoped_padder>, std::default_delete<spdlog::details::name_formatter<spdlog::details::null_scoped_padder> >, void>(std::unique_ptr<spdlog::details::name_formatter<spdlog::details::null_scoped_padder>, std::default_delete<spdlog::details::name_formatter<spdlog::details::null_scoped_padder> > >&&)
FUNC 46b92 5c 0 std::__detail::_MakeUniq<spdlog::details::level_formatter<spdlog::details::null_scoped_padder> >::__single_object std::make_unique<spdlog::details::level_formatter<spdlog::details::null_scoped_padder>, spdlog::details::padding_info&>(spdlog::details::padding_info&)
FUNC 46bee 68 0 std::unique_ptr<spdlog::details::level_formatter<spdlog::details::null_scoped_padder>, std::default_delete<spdlog::details::level_formatter<spdlog::details::null_scoped_padder> > >::~unique_ptr()
FUNC 46c56 32 0 std::__uniq_ptr_data<spdlog::details::flag_formatter, std::default_delete<spdlog::details::flag_formatter>, true, true>::__uniq_ptr_impl<std::default_delete<spdlog::details::level_formatter<spdlog::details::null_scoped_padder> > >(spdlog::details::flag_formatter*, std::default_delete<spdlog::details::level_formatter<spdlog::details::null_scoped_padder> >&&)
FUNC 46c88 56 0 std::unique_ptr<spdlog::details::flag_formatter, std::default_delete<spdlog::details::flag_formatter> >::unique_ptr<spdlog::details::level_formatter<spdlog::details::null_scoped_padder>, std::default_delete<spdlog::details::level_formatter<spdlog::details::null_scoped_padder> >, void>(std::unique_ptr<spdlog::details::level_formatter<spdlog::details::null_scoped_padder>, std::default_delete<spdlog::details::level_formatter<spdlog::details::null_scoped_padder> > >&&)
FUNC 46cde 5c 0 std::__detail::_MakeUniq<spdlog::details::short_level_formatter<spdlog::details::null_scoped_padder> >::__single_object std::make_unique<spdlog::details::short_level_formatter<spdlog::details::null_scoped_padder>, spdlog::details::padding_info&>(spdlog::details::padding_info&)
FUNC 46d3a 68 0 std::unique_ptr<spdlog::details::short_level_formatter<spdlog::details::null_scoped_padder>, std::default_delete<spdlog::details::short_level_formatter<spdlog::details::null_scoped_padder> > >::~unique_ptr()
FUNC 46da2 32 0 std::__uniq_ptr_data<spdlog::details::flag_formatter, std::default_delete<spdlog::details::flag_formatter>, true, true>::__uniq_ptr_impl<std::default_delete<spdlog::details::short_level_formatter<spdlog::details::null_scoped_padder> > >(spdlog::details::flag_formatter*, std::default_delete<spdlog::details::short_level_formatter<spdlog::details::null_scoped_padder> >&&)
FUNC 46dd4 56 0 std::unique_ptr<spdlog::details::flag_formatter, std::default_delete<spdlog::details::flag_formatter> >::unique_ptr<spdlog::details::short_level_formatter<spdlog::details::null_scoped_padder>, std::default_delete<spdlog::details::short_level_formatter<spdlog::details::null_scoped_padder> >, void>(std::unique_ptr<spdlog::details::short_level_formatter<spdlog::details::null_scoped_padder>, std::default_delete<spdlog::details::short_level_formatter<spdlog::details::null_scoped_padder> > >&&)
FUNC 46e2a 5c 0 std::__detail::_MakeUniq<spdlog::details::t_formatter<spdlog::details::null_scoped_padder> >::__single_object std::make_unique<spdlog::details::t_formatter<spdlog::details::null_scoped_padder>, spdlog::details::padding_info&>(spdlog::details::padding_info&)
FUNC 46e86 68 0 std::unique_ptr<spdlog::details::t_formatter<spdlog::details::null_scoped_padder>, std::default_delete<spdlog::details::t_formatter<spdlog::details::null_scoped_padder> > >::~unique_ptr()
FUNC 46eee 32 0 std::__uniq_ptr_data<spdlog::details::flag_formatter, std::default_delete<spdlog::details::flag_formatter>, true, true>::__uniq_ptr_impl<std::default_delete<spdlog::details::t_formatter<spdlog::details::null_scoped_padder> > >(spdlog::details::flag_formatter*, std::default_delete<spdlog::details::t_formatter<spdlog::details::null_scoped_padder> >&&)
FUNC 46f20 56 0 std::unique_ptr<spdlog::details::flag_formatter, std::default_delete<spdlog::details::flag_formatter> >::unique_ptr<spdlog::details::t_formatter<spdlog::details::null_scoped_padder>, std::default_delete<spdlog::details::t_formatter<spdlog::details::null_scoped_padder> >, void>(std::unique_ptr<spdlog::details::t_formatter<spdlog::details::null_scoped_padder>, std::default_delete<spdlog::details::t_formatter<spdlog::details::null_scoped_padder> > >&&)
FUNC 46f76 5c 0 std::__detail::_MakeUniq<spdlog::details::v_formatter<spdlog::details::null_scoped_padder> >::__single_object std::make_unique<spdlog::details::v_formatter<spdlog::details::null_scoped_padder>, spdlog::details::padding_info&>(spdlog::details::padding_info&)
FUNC 46fd2 68 0 std::unique_ptr<spdlog::details::v_formatter<spdlog::details::null_scoped_padder>, std::default_delete<spdlog::details::v_formatter<spdlog::details::null_scoped_padder> > >::~unique_ptr()
FUNC 4703a 32 0 std::__uniq_ptr_data<spdlog::details::flag_formatter, std::default_delete<spdlog::details::flag_formatter>, true, true>::__uniq_ptr_impl<std::default_delete<spdlog::details::v_formatter<spdlog::details::null_scoped_padder> > >(spdlog::details::flag_formatter*, std::default_delete<spdlog::details::v_formatter<spdlog::details::null_scoped_padder> >&&)
FUNC 4706c 56 0 std::unique_ptr<spdlog::details::flag_formatter, std::default_delete<spdlog::details::flag_formatter> >::unique_ptr<spdlog::details::v_formatter<spdlog::details::null_scoped_padder>, std::default_delete<spdlog::details::v_formatter<spdlog::details::null_scoped_padder> >, void>(std::unique_ptr<spdlog::details::v_formatter<spdlog::details::null_scoped_padder>, std::default_delete<spdlog::details::v_formatter<spdlog::details::null_scoped_padder> > >&&)
FUNC 470c2 5c 0 std::__detail::_MakeUniq<spdlog::details::a_formatter<spdlog::details::null_scoped_padder> >::__single_object std::make_unique<spdlog::details::a_formatter<spdlog::details::null_scoped_padder>, spdlog::details::padding_info&>(spdlog::details::padding_info&)
FUNC 4711e 68 0 std::unique_ptr<spdlog::details::a_formatter<spdlog::details::null_scoped_padder>, std::default_delete<spdlog::details::a_formatter<spdlog::details::null_scoped_padder> > >::~unique_ptr()
FUNC 47186 32 0 std::__uniq_ptr_data<spdlog::details::flag_formatter, std::default_delete<spdlog::details::flag_formatter>, true, true>::__uniq_ptr_impl<std::default_delete<spdlog::details::a_formatter<spdlog::details::null_scoped_padder> > >(spdlog::details::flag_formatter*, std::default_delete<spdlog::details::a_formatter<spdlog::details::null_scoped_padder> >&&)
FUNC 471b8 56 0 std::unique_ptr<spdlog::details::flag_formatter, std::default_delete<spdlog::details::flag_formatter> >::unique_ptr<spdlog::details::a_formatter<spdlog::details::null_scoped_padder>, std::default_delete<spdlog::details::a_formatter<spdlog::details::null_scoped_padder> >, void>(std::unique_ptr<spdlog::details::a_formatter<spdlog::details::null_scoped_padder>, std::default_delete<spdlog::details::a_formatter<spdlog::details::null_scoped_padder> > >&&)
FUNC 4720e 5c 0 std::__detail::_MakeUniq<spdlog::details::A_formatter<spdlog::details::null_scoped_padder> >::__single_object std::make_unique<spdlog::details::A_formatter<spdlog::details::null_scoped_padder>, spdlog::details::padding_info&>(spdlog::details::padding_info&)
FUNC 4726a 68 0 std::unique_ptr<spdlog::details::A_formatter<spdlog::details::null_scoped_padder>, std::default_delete<spdlog::details::A_formatter<spdlog::details::null_scoped_padder> > >::~unique_ptr()
FUNC 472d2 32 0 std::__uniq_ptr_data<spdlog::details::flag_formatter, std::default_delete<spdlog::details::flag_formatter>, true, true>::__uniq_ptr_impl<std::default_delete<spdlog::details::A_formatter<spdlog::details::null_scoped_padder> > >(spdlog::details::flag_formatter*, std::default_delete<spdlog::details::A_formatter<spdlog::details::null_scoped_padder> >&&)
FUNC 47304 56 0 std::unique_ptr<spdlog::details::flag_formatter, std::default_delete<spdlog::details::flag_formatter> >::unique_ptr<spdlog::details::A_formatter<spdlog::details::null_scoped_padder>, std::default_delete<spdlog::details::A_formatter<spdlog::details::null_scoped_padder> >, void>(std::unique_ptr<spdlog::details::A_formatter<spdlog::details::null_scoped_padder>, std::default_delete<spdlog::details::A_formatter<spdlog::details::null_scoped_padder> > >&&)
FUNC 4735a 5c 0 std::__detail::_MakeUniq<spdlog::details::b_formatter<spdlog::details::null_scoped_padder> >::__single_object std::make_unique<spdlog::details::b_formatter<spdlog::details::null_scoped_padder>, spdlog::details::padding_info&>(spdlog::details::padding_info&)
FUNC 473b6 68 0 std::unique_ptr<spdlog::details::b_formatter<spdlog::details::null_scoped_padder>, std::default_delete<spdlog::details::b_formatter<spdlog::details::null_scoped_padder> > >::~unique_ptr()
FUNC 4741e 32 0 std::__uniq_ptr_data<spdlog::details::flag_formatter, std::default_delete<spdlog::details::flag_formatter>, true, true>::__uniq_ptr_impl<std::default_delete<spdlog::details::b_formatter<spdlog::details::null_scoped_padder> > >(spdlog::details::flag_formatter*, std::default_delete<spdlog::details::b_formatter<spdlog::details::null_scoped_padder> >&&)
FUNC 47450 56 0 std::unique_ptr<spdlog::details::flag_formatter, std::default_delete<spdlog::details::flag_formatter> >::unique_ptr<spdlog::details::b_formatter<spdlog::details::null_scoped_padder>, std::default_delete<spdlog::details::b_formatter<spdlog::details::null_scoped_padder> >, void>(std::unique_ptr<spdlog::details::b_formatter<spdlog::details::null_scoped_padder>, std::default_delete<spdlog::details::b_formatter<spdlog::details::null_scoped_padder> > >&&)
FUNC 474a6 5c 0 std::__detail::_MakeUniq<spdlog::details::B_formatter<spdlog::details::null_scoped_padder> >::__single_object std::make_unique<spdlog::details::B_formatter<spdlog::details::null_scoped_padder>, spdlog::details::padding_info&>(spdlog::details::padding_info&)
FUNC 47502 68 0 std::unique_ptr<spdlog::details::B_formatter<spdlog::details::null_scoped_padder>, std::default_delete<spdlog::details::B_formatter<spdlog::details::null_scoped_padder> > >::~unique_ptr()
FUNC 4756a 32 0 std::__uniq_ptr_data<spdlog::details::flag_formatter, std::default_delete<spdlog::details::flag_formatter>, true, true>::__uniq_ptr_impl<std::default_delete<spdlog::details::B_formatter<spdlog::details::null_scoped_padder> > >(spdlog::details::flag_formatter*, std::default_delete<spdlog::details::B_formatter<spdlog::details::null_scoped_padder> >&&)
FUNC 4759c 56 0 std::unique_ptr<spdlog::details::flag_formatter, std::default_delete<spdlog::details::flag_formatter> >::unique_ptr<spdlog::details::B_formatter<spdlog::details::null_scoped_padder>, std::default_delete<spdlog::details::B_formatter<spdlog::details::null_scoped_padder> >, void>(std::unique_ptr<spdlog::details::B_formatter<spdlog::details::null_scoped_padder>, std::default_delete<spdlog::details::B_formatter<spdlog::details::null_scoped_padder> > >&&)
FUNC 475f2 5c 0 std::__detail::_MakeUniq<spdlog::details::c_formatter<spdlog::details::null_scoped_padder> >::__single_object std::make_unique<spdlog::details::c_formatter<spdlog::details::null_scoped_padder>, spdlog::details::padding_info&>(spdlog::details::padding_info&)
FUNC 4764e 68 0 std::unique_ptr<spdlog::details::c_formatter<spdlog::details::null_scoped_padder>, std::default_delete<spdlog::details::c_formatter<spdlog::details::null_scoped_padder> > >::~unique_ptr()
FUNC 476b6 32 0 std::__uniq_ptr_data<spdlog::details::flag_formatter, std::default_delete<spdlog::details::flag_formatter>, true, true>::__uniq_ptr_impl<std::default_delete<spdlog::details::c_formatter<spdlog::details::null_scoped_padder> > >(spdlog::details::flag_formatter*, std::default_delete<spdlog::details::c_formatter<spdlog::details::null_scoped_padder> >&&)
FUNC 476e8 56 0 std::unique_ptr<spdlog::details::flag_formatter, std::default_delete<spdlog::details::flag_formatter> >::unique_ptr<spdlog::details::c_formatter<spdlog::details::null_scoped_padder>, std::default_delete<spdlog::details::c_formatter<spdlog::details::null_scoped_padder> >, void>(std::unique_ptr<spdlog::details::c_formatter<spdlog::details::null_scoped_padder>, std::default_delete<spdlog::details::c_formatter<spdlog::details::null_scoped_padder> > >&&)
FUNC 4773e 5c 0 std::__detail::_MakeUniq<spdlog::details::C_formatter<spdlog::details::null_scoped_padder> >::__single_object std::make_unique<spdlog::details::C_formatter<spdlog::details::null_scoped_padder>, spdlog::details::padding_info&>(spdlog::details::padding_info&)
FUNC 4779a 68 0 std::unique_ptr<spdlog::details::C_formatter<spdlog::details::null_scoped_padder>, std::default_delete<spdlog::details::C_formatter<spdlog::details::null_scoped_padder> > >::~unique_ptr()
FUNC 47802 32 0 std::__uniq_ptr_data<spdlog::details::flag_formatter, std::default_delete<spdlog::details::flag_formatter>, true, true>::__uniq_ptr_impl<std::default_delete<spdlog::details::C_formatter<spdlog::details::null_scoped_padder> > >(spdlog::details::flag_formatter*, std::default_delete<spdlog::details::C_formatter<spdlog::details::null_scoped_padder> >&&)
FUNC 47834 56 0 std::unique_ptr<spdlog::details::flag_formatter, std::default_delete<spdlog::details::flag_formatter> >::unique_ptr<spdlog::details::C_formatter<spdlog::details::null_scoped_padder>, std::default_delete<spdlog::details::C_formatter<spdlog::details::null_scoped_padder> >, void>(std::unique_ptr<spdlog::details::C_formatter<spdlog::details::null_scoped_padder>, std::default_delete<spdlog::details::C_formatter<spdlog::details::null_scoped_padder> > >&&)
FUNC 4788a 5c 0 std::__detail::_MakeUniq<spdlog::details::Y_formatter<spdlog::details::null_scoped_padder> >::__single_object std::make_unique<spdlog::details::Y_formatter<spdlog::details::null_scoped_padder>, spdlog::details::padding_info&>(spdlog::details::padding_info&)
FUNC 478e6 68 0 std::unique_ptr<spdlog::details::Y_formatter<spdlog::details::null_scoped_padder>, std::default_delete<spdlog::details::Y_formatter<spdlog::details::null_scoped_padder> > >::~unique_ptr()
FUNC 4794e 32 0 std::__uniq_ptr_data<spdlog::details::flag_formatter, std::default_delete<spdlog::details::flag_formatter>, true, true>::__uniq_ptr_impl<std::default_delete<spdlog::details::Y_formatter<spdlog::details::null_scoped_padder> > >(spdlog::details::flag_formatter*, std::default_delete<spdlog::details::Y_formatter<spdlog::details::null_scoped_padder> >&&)
FUNC 47980 56 0 std::unique_ptr<spdlog::details::flag_formatter, std::default_delete<spdlog::details::flag_formatter> >::unique_ptr<spdlog::details::Y_formatter<spdlog::details::null_scoped_padder>, std::default_delete<spdlog::details::Y_formatter<spdlog::details::null_scoped_padder> >, void>(std::unique_ptr<spdlog::details::Y_formatter<spdlog::details::null_scoped_padder>, std::default_delete<spdlog::details::Y_formatter<spdlog::details::null_scoped_padder> > >&&)
FUNC 479d6 5c 0 std::__detail::_MakeUniq<spdlog::details::D_formatter<spdlog::details::null_scoped_padder> >::__single_object std::make_unique<spdlog::details::D_formatter<spdlog::details::null_scoped_padder>, spdlog::details::padding_info&>(spdlog::details::padding_info&)
FUNC 47a32 68 0 std::unique_ptr<spdlog::details::D_formatter<spdlog::details::null_scoped_padder>, std::default_delete<spdlog::details::D_formatter<spdlog::details::null_scoped_padder> > >::~unique_ptr()
FUNC 47a9a 32 0 std::__uniq_ptr_data<spdlog::details::flag_formatter, std::default_delete<spdlog::details::flag_formatter>, true, true>::__uniq_ptr_impl<std::default_delete<spdlog::details::D_formatter<spdlog::details::null_scoped_padder> > >(spdlog::details::flag_formatter*, std::default_delete<spdlog::details::D_formatter<spdlog::details::null_scoped_padder> >&&)
FUNC 47acc 56 0 std::unique_ptr<spdlog::details::flag_formatter, std::default_delete<spdlog::details::flag_formatter> >::unique_ptr<spdlog::details::D_formatter<spdlog::details::null_scoped_padder>, std::default_delete<spdlog::details::D_formatter<spdlog::details::null_scoped_padder> >, void>(std::unique_ptr<spdlog::details::D_formatter<spdlog::details::null_scoped_padder>, std::default_delete<spdlog::details::D_formatter<spdlog::details::null_scoped_padder> > >&&)
FUNC 47b22 5c 0 std::__detail::_MakeUniq<spdlog::details::m_formatter<spdlog::details::null_scoped_padder> >::__single_object std::make_unique<spdlog::details::m_formatter<spdlog::details::null_scoped_padder>, spdlog::details::padding_info&>(spdlog::details::padding_info&)
FUNC 47b7e 68 0 std::unique_ptr<spdlog::details::m_formatter<spdlog::details::null_scoped_padder>, std::default_delete<spdlog::details::m_formatter<spdlog::details::null_scoped_padder> > >::~unique_ptr()
FUNC 47be6 32 0 std::__uniq_ptr_data<spdlog::details::flag_formatter, std::default_delete<spdlog::details::flag_formatter>, true, true>::__uniq_ptr_impl<std::default_delete<spdlog::details::m_formatter<spdlog::details::null_scoped_padder> > >(spdlog::details::flag_formatter*, std::default_delete<spdlog::details::m_formatter<spdlog::details::null_scoped_padder> >&&)
FUNC 47c18 56 0 std::unique_ptr<spdlog::details::flag_formatter, std::default_delete<spdlog::details::flag_formatter> >::unique_ptr<spdlog::details::m_formatter<spdlog::details::null_scoped_padder>, std::default_delete<spdlog::details::m_formatter<spdlog::details::null_scoped_padder> >, void>(std::unique_ptr<spdlog::details::m_formatter<spdlog::details::null_scoped_padder>, std::default_delete<spdlog::details::m_formatter<spdlog::details::null_scoped_padder> > >&&)
FUNC 47c6e 5c 0 std::__detail::_MakeUniq<spdlog::details::d_formatter<spdlog::details::null_scoped_padder> >::__single_object std::make_unique<spdlog::details::d_formatter<spdlog::details::null_scoped_padder>, spdlog::details::padding_info&>(spdlog::details::padding_info&)
FUNC 47cca 68 0 std::unique_ptr<spdlog::details::d_formatter<spdlog::details::null_scoped_padder>, std::default_delete<spdlog::details::d_formatter<spdlog::details::null_scoped_padder> > >::~unique_ptr()
FUNC 47d32 32 0 std::__uniq_ptr_data<spdlog::details::flag_formatter, std::default_delete<spdlog::details::flag_formatter>, true, true>::__uniq_ptr_impl<std::default_delete<spdlog::details::d_formatter<spdlog::details::null_scoped_padder> > >(spdlog::details::flag_formatter*, std::default_delete<spdlog::details::d_formatter<spdlog::details::null_scoped_padder> >&&)
FUNC 47d64 56 0 std::unique_ptr<spdlog::details::flag_formatter, std::default_delete<spdlog::details::flag_formatter> >::unique_ptr<spdlog::details::d_formatter<spdlog::details::null_scoped_padder>, std::default_delete<spdlog::details::d_formatter<spdlog::details::null_scoped_padder> >, void>(std::unique_ptr<spdlog::details::d_formatter<spdlog::details::null_scoped_padder>, std::default_delete<spdlog::details::d_formatter<spdlog::details::null_scoped_padder> > >&&)
FUNC 47dba 5c 0 std::__detail::_MakeUniq<spdlog::details::H_formatter<spdlog::details::null_scoped_padder> >::__single_object std::make_unique<spdlog::details::H_formatter<spdlog::details::null_scoped_padder>, spdlog::details::padding_info&>(spdlog::details::padding_info&)
FUNC 47e16 68 0 std::unique_ptr<spdlog::details::H_formatter<spdlog::details::null_scoped_padder>, std::default_delete<spdlog::details::H_formatter<spdlog::details::null_scoped_padder> > >::~unique_ptr()
FUNC 47e7e 32 0 std::__uniq_ptr_data<spdlog::details::flag_formatter, std::default_delete<spdlog::details::flag_formatter>, true, true>::__uniq_ptr_impl<std::default_delete<spdlog::details::H_formatter<spdlog::details::null_scoped_padder> > >(spdlog::details::flag_formatter*, std::default_delete<spdlog::details::H_formatter<spdlog::details::null_scoped_padder> >&&)
FUNC 47eb0 56 0 std::unique_ptr<spdlog::details::flag_formatter, std::default_delete<spdlog::details::flag_formatter> >::unique_ptr<spdlog::details::H_formatter<spdlog::details::null_scoped_padder>, std::default_delete<spdlog::details::H_formatter<spdlog::details::null_scoped_padder> >, void>(std::unique_ptr<spdlog::details::H_formatter<spdlog::details::null_scoped_padder>, std::default_delete<spdlog::details::H_formatter<spdlog::details::null_scoped_padder> > >&&)
FUNC 47f06 5c 0 std::__detail::_MakeUniq<spdlog::details::I_formatter<spdlog::details::null_scoped_padder> >::__single_object std::make_unique<spdlog::details::I_formatter<spdlog::details::null_scoped_padder>, spdlog::details::padding_info&>(spdlog::details::padding_info&)
FUNC 47f62 68 0 std::unique_ptr<spdlog::details::I_formatter<spdlog::details::null_scoped_padder>, std::default_delete<spdlog::details::I_formatter<spdlog::details::null_scoped_padder> > >::~unique_ptr()
FUNC 47fca 32 0 std::__uniq_ptr_data<spdlog::details::flag_formatter, std::default_delete<spdlog::details::flag_formatter>, true, true>::__uniq_ptr_impl<std::default_delete<spdlog::details::I_formatter<spdlog::details::null_scoped_padder> > >(spdlog::details::flag_formatter*, std::default_delete<spdlog::details::I_formatter<spdlog::details::null_scoped_padder> >&&)
FUNC 47ffc 56 0 std::unique_ptr<spdlog::details::flag_formatter, std::default_delete<spdlog::details::flag_formatter> >::unique_ptr<spdlog::details::I_formatter<spdlog::details::null_scoped_padder>, std::default_delete<spdlog::details::I_formatter<spdlog::details::null_scoped_padder> >, void>(std::unique_ptr<spdlog::details::I_formatter<spdlog::details::null_scoped_padder>, std::default_delete<spdlog::details::I_formatter<spdlog::details::null_scoped_padder> > >&&)
FUNC 48052 5c 0 std::__detail::_MakeUniq<spdlog::details::M_formatter<spdlog::details::null_scoped_padder> >::__single_object std::make_unique<spdlog::details::M_formatter<spdlog::details::null_scoped_padder>, spdlog::details::padding_info&>(spdlog::details::padding_info&)
FUNC 480ae 68 0 std::unique_ptr<spdlog::details::M_formatter<spdlog::details::null_scoped_padder>, std::default_delete<spdlog::details::M_formatter<spdlog::details::null_scoped_padder> > >::~unique_ptr()
FUNC 48116 32 0 std::__uniq_ptr_data<spdlog::details::flag_formatter, std::default_delete<spdlog::details::flag_formatter>, true, true>::__uniq_ptr_impl<std::default_delete<spdlog::details::M_formatter<spdlog::details::null_scoped_padder> > >(spdlog::details::flag_formatter*, std::default_delete<spdlog::details::M_formatter<spdlog::details::null_scoped_padder> >&&)
FUNC 48148 56 0 std::unique_ptr<spdlog::details::flag_formatter, std::default_delete<spdlog::details::flag_formatter> >::unique_ptr<spdlog::details::M_formatter<spdlog::details::null_scoped_padder>, std::default_delete<spdlog::details::M_formatter<spdlog::details::null_scoped_padder> >, void>(std::unique_ptr<spdlog::details::M_formatter<spdlog::details::null_scoped_padder>, std::default_delete<spdlog::details::M_formatter<spdlog::details::null_scoped_padder> > >&&)
FUNC 4819e 5c 0 std::__detail::_MakeUniq<spdlog::details::S_formatter<spdlog::details::null_scoped_padder> >::__single_object std::make_unique<spdlog::details::S_formatter<spdlog::details::null_scoped_padder>, spdlog::details::padding_info&>(spdlog::details::padding_info&)
FUNC 481fa 68 0 std::unique_ptr<spdlog::details::S_formatter<spdlog::details::null_scoped_padder>, std::default_delete<spdlog::details::S_formatter<spdlog::details::null_scoped_padder> > >::~unique_ptr()
FUNC 48262 32 0 std::__uniq_ptr_data<spdlog::details::flag_formatter, std::default_delete<spdlog::details::flag_formatter>, true, true>::__uniq_ptr_impl<std::default_delete<spdlog::details::S_formatter<spdlog::details::null_scoped_padder> > >(spdlog::details::flag_formatter*, std::default_delete<spdlog::details::S_formatter<spdlog::details::null_scoped_padder> >&&)
FUNC 48294 56 0 std::unique_ptr<spdlog::details::flag_formatter, std::default_delete<spdlog::details::flag_formatter> >::unique_ptr<spdlog::details::S_formatter<spdlog::details::null_scoped_padder>, std::default_delete<spdlog::details::S_formatter<spdlog::details::null_scoped_padder> >, void>(std::unique_ptr<spdlog::details::S_formatter<spdlog::details::null_scoped_padder>, std::default_delete<spdlog::details::S_formatter<spdlog::details::null_scoped_padder> > >&&)
FUNC 482ea 5c 0 std::__detail::_MakeUniq<spdlog::details::e_formatter<spdlog::details::null_scoped_padder> >::__single_object std::make_unique<spdlog::details::e_formatter<spdlog::details::null_scoped_padder>, spdlog::details::padding_info&>(spdlog::details::padding_info&)
FUNC 48346 68 0 std::unique_ptr<spdlog::details::e_formatter<spdlog::details::null_scoped_padder>, std::default_delete<spdlog::details::e_formatter<spdlog::details::null_scoped_padder> > >::~unique_ptr()
FUNC 483ae 32 0 std::__uniq_ptr_data<spdlog::details::flag_formatter, std::default_delete<spdlog::details::flag_formatter>, true, true>::__uniq_ptr_impl<std::default_delete<spdlog::details::e_formatter<spdlog::details::null_scoped_padder> > >(spdlog::details::flag_formatter*, std::default_delete<spdlog::details::e_formatter<spdlog::details::null_scoped_padder> >&&)
FUNC 483e0 56 0 std::unique_ptr<spdlog::details::flag_formatter, std::default_delete<spdlog::details::flag_formatter> >::unique_ptr<spdlog::details::e_formatter<spdlog::details::null_scoped_padder>, std::default_delete<spdlog::details::e_formatter<spdlog::details::null_scoped_padder> >, void>(std::unique_ptr<spdlog::details::e_formatter<spdlog::details::null_scoped_padder>, std::default_delete<spdlog::details::e_formatter<spdlog::details::null_scoped_padder> > >&&)
FUNC 48436 5c 0 std::__detail::_MakeUniq<spdlog::details::f_formatter<spdlog::details::null_scoped_padder> >::__single_object std::make_unique<spdlog::details::f_formatter<spdlog::details::null_scoped_padder>, spdlog::details::padding_info&>(spdlog::details::padding_info&)
FUNC 48492 68 0 std::unique_ptr<spdlog::details::f_formatter<spdlog::details::null_scoped_padder>, std::default_delete<spdlog::details::f_formatter<spdlog::details::null_scoped_padder> > >::~unique_ptr()
FUNC 484fa 32 0 std::__uniq_ptr_data<spdlog::details::flag_formatter, std::default_delete<spdlog::details::flag_formatter>, true, true>::__uniq_ptr_impl<std::default_delete<spdlog::details::f_formatter<spdlog::details::null_scoped_padder> > >(spdlog::details::flag_formatter*, std::default_delete<spdlog::details::f_formatter<spdlog::details::null_scoped_padder> >&&)
FUNC 4852c 56 0 std::unique_ptr<spdlog::details::flag_formatter, std::default_delete<spdlog::details::flag_formatter> >::unique_ptr<spdlog::details::f_formatter<spdlog::details::null_scoped_padder>, std::default_delete<spdlog::details::f_formatter<spdlog::details::null_scoped_padder> >, void>(std::unique_ptr<spdlog::details::f_formatter<spdlog::details::null_scoped_padder>, std::default_delete<spdlog::details::f_formatter<spdlog::details::null_scoped_padder> > >&&)
FUNC 48582 5c 0 std::__detail::_MakeUniq<spdlog::details::F_formatter<spdlog::details::null_scoped_padder> >::__single_object std::make_unique<spdlog::details::F_formatter<spdlog::details::null_scoped_padder>, spdlog::details::padding_info&>(spdlog::details::padding_info&)
FUNC 485de 68 0 std::unique_ptr<spdlog::details::F_formatter<spdlog::details::null_scoped_padder>, std::default_delete<spdlog::details::F_formatter<spdlog::details::null_scoped_padder> > >::~unique_ptr()
FUNC 48646 32 0 std::__uniq_ptr_data<spdlog::details::flag_formatter, std::default_delete<spdlog::details::flag_formatter>, true, true>::__uniq_ptr_impl<std::default_delete<spdlog::details::F_formatter<spdlog::details::null_scoped_padder> > >(spdlog::details::flag_formatter*, std::default_delete<spdlog::details::F_formatter<spdlog::details::null_scoped_padder> >&&)
FUNC 48678 56 0 std::unique_ptr<spdlog::details::flag_formatter, std::default_delete<spdlog::details::flag_formatter> >::unique_ptr<spdlog::details::F_formatter<spdlog::details::null_scoped_padder>, std::default_delete<spdlog::details::F_formatter<spdlog::details::null_scoped_padder> >, void>(std::unique_ptr<spdlog::details::F_formatter<spdlog::details::null_scoped_padder>, std::default_delete<spdlog::details::F_formatter<spdlog::details::null_scoped_padder> > >&&)
FUNC 486ce 5c 0 std::__detail::_MakeUniq<spdlog::details::E_formatter<spdlog::details::null_scoped_padder> >::__single_object std::make_unique<spdlog::details::E_formatter<spdlog::details::null_scoped_padder>, spdlog::details::padding_info&>(spdlog::details::padding_info&)
FUNC 4872a 68 0 std::unique_ptr<spdlog::details::E_formatter<spdlog::details::null_scoped_padder>, std::default_delete<spdlog::details::E_formatter<spdlog::details::null_scoped_padder> > >::~unique_ptr()
FUNC 48792 32 0 std::__uniq_ptr_data<spdlog::details::flag_formatter, std::default_delete<spdlog::details::flag_formatter>, true, true>::__uniq_ptr_impl<std::default_delete<spdlog::details::E_formatter<spdlog::details::null_scoped_padder> > >(spdlog::details::flag_formatter*, std::default_delete<spdlog::details::E_formatter<spdlog::details::null_scoped_padder> >&&)
FUNC 487c4 56 0 std::unique_ptr<spdlog::details::flag_formatter, std::default_delete<spdlog::details::flag_formatter> >::unique_ptr<spdlog::details::E_formatter<spdlog::details::null_scoped_padder>, std::default_delete<spdlog::details::E_formatter<spdlog::details::null_scoped_padder> >, void>(std::unique_ptr<spdlog::details::E_formatter<spdlog::details::null_scoped_padder>, std::default_delete<spdlog::details::E_formatter<spdlog::details::null_scoped_padder> > >&&)
FUNC 4881a 5c 0 std::__detail::_MakeUniq<spdlog::details::p_formatter<spdlog::details::null_scoped_padder> >::__single_object std::make_unique<spdlog::details::p_formatter<spdlog::details::null_scoped_padder>, spdlog::details::padding_info&>(spdlog::details::padding_info&)
FUNC 48876 68 0 std::unique_ptr<spdlog::details::p_formatter<spdlog::details::null_scoped_padder>, std::default_delete<spdlog::details::p_formatter<spdlog::details::null_scoped_padder> > >::~unique_ptr()
FUNC 488de 32 0 std::__uniq_ptr_data<spdlog::details::flag_formatter, std::default_delete<spdlog::details::flag_formatter>, true, true>::__uniq_ptr_impl<std::default_delete<spdlog::details::p_formatter<spdlog::details::null_scoped_padder> > >(spdlog::details::flag_formatter*, std::default_delete<spdlog::details::p_formatter<spdlog::details::null_scoped_padder> >&&)
FUNC 48910 56 0 std::unique_ptr<spdlog::details::flag_formatter, std::default_delete<spdlog::details::flag_formatter> >::unique_ptr<spdlog::details::p_formatter<spdlog::details::null_scoped_padder>, std::default_delete<spdlog::details::p_formatter<spdlog::details::null_scoped_padder> >, void>(std::unique_ptr<spdlog::details::p_formatter<spdlog::details::null_scoped_padder>, std::default_delete<spdlog::details::p_formatter<spdlog::details::null_scoped_padder> > >&&)
FUNC 48966 5c 0 std::__detail::_MakeUniq<spdlog::details::r_formatter<spdlog::details::null_scoped_padder> >::__single_object std::make_unique<spdlog::details::r_formatter<spdlog::details::null_scoped_padder>, spdlog::details::padding_info&>(spdlog::details::padding_info&)
FUNC 489c2 68 0 std::unique_ptr<spdlog::details::r_formatter<spdlog::details::null_scoped_padder>, std::default_delete<spdlog::details::r_formatter<spdlog::details::null_scoped_padder> > >::~unique_ptr()
FUNC 48a2a 32 0 std::__uniq_ptr_data<spdlog::details::flag_formatter, std::default_delete<spdlog::details::flag_formatter>, true, true>::__uniq_ptr_impl<std::default_delete<spdlog::details::r_formatter<spdlog::details::null_scoped_padder> > >(spdlog::details::flag_formatter*, std::default_delete<spdlog::details::r_formatter<spdlog::details::null_scoped_padder> >&&)
FUNC 48a5c 56 0 std::unique_ptr<spdlog::details::flag_formatter, std::default_delete<spdlog::details::flag_formatter> >::unique_ptr<spdlog::details::r_formatter<spdlog::details::null_scoped_padder>, std::default_delete<spdlog::details::r_formatter<spdlog::details::null_scoped_padder> >, void>(std::unique_ptr<spdlog::details::r_formatter<spdlog::details::null_scoped_padder>, std::default_delete<spdlog::details::r_formatter<spdlog::details::null_scoped_padder> > >&&)
FUNC 48ab2 5c 0 std::__detail::_MakeUniq<spdlog::details::R_formatter<spdlog::details::null_scoped_padder> >::__single_object std::make_unique<spdlog::details::R_formatter<spdlog::details::null_scoped_padder>, spdlog::details::padding_info&>(spdlog::details::padding_info&)
FUNC 48b0e 68 0 std::unique_ptr<spdlog::details::R_formatter<spdlog::details::null_scoped_padder>, std::default_delete<spdlog::details::R_formatter<spdlog::details::null_scoped_padder> > >::~unique_ptr()
FUNC 48b76 32 0 std::__uniq_ptr_data<spdlog::details::flag_formatter, std::default_delete<spdlog::details::flag_formatter>, true, true>::__uniq_ptr_impl<std::default_delete<spdlog::details::R_formatter<spdlog::details::null_scoped_padder> > >(spdlog::details::flag_formatter*, std::default_delete<spdlog::details::R_formatter<spdlog::details::null_scoped_padder> >&&)
FUNC 48ba8 56 0 std::unique_ptr<spdlog::details::flag_formatter, std::default_delete<spdlog::details::flag_formatter> >::unique_ptr<spdlog::details::R_formatter<spdlog::details::null_scoped_padder>, std::default_delete<spdlog::details::R_formatter<spdlog::details::null_scoped_padder> >, void>(std::unique_ptr<spdlog::details::R_formatter<spdlog::details::null_scoped_padder>, std::default_delete<spdlog::details::R_formatter<spdlog::details::null_scoped_padder> > >&&)
FUNC 48bfe 5c 0 std::__detail::_MakeUniq<spdlog::details::T_formatter<spdlog::details::null_scoped_padder> >::__single_object std::make_unique<spdlog::details::T_formatter<spdlog::details::null_scoped_padder>, spdlog::details::padding_info&>(spdlog::details::padding_info&)
FUNC 48c5a 68 0 std::unique_ptr<spdlog::details::T_formatter<spdlog::details::null_scoped_padder>, std::default_delete<spdlog::details::T_formatter<spdlog::details::null_scoped_padder> > >::~unique_ptr()
FUNC 48cc2 32 0 std::__uniq_ptr_data<spdlog::details::flag_formatter, std::default_delete<spdlog::details::flag_formatter>, true, true>::__uniq_ptr_impl<std::default_delete<spdlog::details::T_formatter<spdlog::details::null_scoped_padder> > >(spdlog::details::flag_formatter*, std::default_delete<spdlog::details::T_formatter<spdlog::details::null_scoped_padder> >&&)
FUNC 48cf4 56 0 std::unique_ptr<spdlog::details::flag_formatter, std::default_delete<spdlog::details::flag_formatter> >::unique_ptr<spdlog::details::T_formatter<spdlog::details::null_scoped_padder>, std::default_delete<spdlog::details::T_formatter<spdlog::details::null_scoped_padder> >, void>(std::unique_ptr<spdlog::details::T_formatter<spdlog::details::null_scoped_padder>, std::default_delete<spdlog::details::T_formatter<spdlog::details::null_scoped_padder> > >&&)
FUNC 48d4a 91 0 std::__detail::_MakeUniq<spdlog::details::z_formatter<spdlog::details::null_scoped_padder> >::__single_object std::make_unique<spdlog::details::z_formatter<spdlog::details::null_scoped_padder>, spdlog::details::padding_info&>(spdlog::details::padding_info&)
FUNC 48ddc 68 0 std::unique_ptr<spdlog::details::z_formatter<spdlog::details::null_scoped_padder>, std::default_delete<spdlog::details::z_formatter<spdlog::details::null_scoped_padder> > >::~unique_ptr()
FUNC 48e44 32 0 std::__uniq_ptr_data<spdlog::details::flag_formatter, std::default_delete<spdlog::details::flag_formatter>, true, true>::__uniq_ptr_impl<std::default_delete<spdlog::details::z_formatter<spdlog::details::null_scoped_padder> > >(spdlog::details::flag_formatter*, std::default_delete<spdlog::details::z_formatter<spdlog::details::null_scoped_padder> >&&)
FUNC 48e76 56 0 std::unique_ptr<spdlog::details::flag_formatter, std::default_delete<spdlog::details::flag_formatter> >::unique_ptr<spdlog::details::z_formatter<spdlog::details::null_scoped_padder>, std::default_delete<spdlog::details::z_formatter<spdlog::details::null_scoped_padder> >, void>(std::unique_ptr<spdlog::details::z_formatter<spdlog::details::null_scoped_padder>, std::default_delete<spdlog::details::z_formatter<spdlog::details::null_scoped_padder> > >&&)
FUNC 48ecc 5c 0 std::__detail::_MakeUniq<spdlog::details::pid_formatter<spdlog::details::null_scoped_padder> >::__single_object std::make_unique<spdlog::details::pid_formatter<spdlog::details::null_scoped_padder>, spdlog::details::padding_info&>(spdlog::details::padding_info&)
FUNC 48f28 68 0 std::unique_ptr<spdlog::details::pid_formatter<spdlog::details::null_scoped_padder>, std::default_delete<spdlog::details::pid_formatter<spdlog::details::null_scoped_padder> > >::~unique_ptr()
FUNC 48f90 32 0 std::__uniq_ptr_data<spdlog::details::flag_formatter, std::default_delete<spdlog::details::flag_formatter>, true, true>::__uniq_ptr_impl<std::default_delete<spdlog::details::pid_formatter<spdlog::details::null_scoped_padder> > >(spdlog::details::flag_formatter*, std::default_delete<spdlog::details::pid_formatter<spdlog::details::null_scoped_padder> >&&)
FUNC 48fc2 56 0 std::unique_ptr<spdlog::details::flag_formatter, std::default_delete<spdlog::details::flag_formatter> >::unique_ptr<spdlog::details::pid_formatter<spdlog::details::null_scoped_padder>, std::default_delete<spdlog::details::pid_formatter<spdlog::details::null_scoped_padder> >, void>(std::unique_ptr<spdlog::details::pid_formatter<spdlog::details::null_scoped_padder>, std::default_delete<spdlog::details::pid_formatter<spdlog::details::null_scoped_padder> > >&&)
FUNC 49018 5c 0 std::__detail::_MakeUniq<spdlog::details::source_location_formatter<spdlog::details::null_scoped_padder> >::__single_object std::make_unique<spdlog::details::source_location_formatter<spdlog::details::null_scoped_padder>, spdlog::details::padding_info&>(spdlog::details::padding_info&)
FUNC 49074 68 0 std::unique_ptr<spdlog::details::source_location_formatter<spdlog::details::null_scoped_padder>, std::default_delete<spdlog::details::source_location_formatter<spdlog::details::null_scoped_padder> > >::~unique_ptr()
FUNC 490dc 32 0 std::__uniq_ptr_data<spdlog::details::flag_formatter, std::default_delete<spdlog::details::flag_formatter>, true, true>::__uniq_ptr_impl<std::default_delete<spdlog::details::source_location_formatter<spdlog::details::null_scoped_padder> > >(spdlog::details::flag_formatter*, std::default_delete<spdlog::details::source_location_formatter<spdlog::details::null_scoped_padder> >&&)
FUNC 4910e 56 0 std::unique_ptr<spdlog::details::flag_formatter, std::default_delete<spdlog::details::flag_formatter> >::unique_ptr<spdlog::details::source_location_formatter<spdlog::details::null_scoped_padder>, std::default_delete<spdlog::details::source_location_formatter<spdlog::details::null_scoped_padder> >, void>(std::unique_ptr<spdlog::details::source_location_formatter<spdlog::details::null_scoped_padder>, std::default_delete<spdlog::details::source_location_formatter<spdlog::details::null_scoped_padder> > >&&)
FUNC 49164 5c 0 std::__detail::_MakeUniq<spdlog::details::short_filename_formatter<spdlog::details::null_scoped_padder> >::__single_object std::make_unique<spdlog::details::short_filename_formatter<spdlog::details::null_scoped_padder>, spdlog::details::padding_info&>(spdlog::details::padding_info&)
FUNC 491c0 68 0 std::unique_ptr<spdlog::details::short_filename_formatter<spdlog::details::null_scoped_padder>, std::default_delete<spdlog::details::short_filename_formatter<spdlog::details::null_scoped_padder> > >::~unique_ptr()
FUNC 49228 32 0 std::__uniq_ptr_data<spdlog::details::flag_formatter, std::default_delete<spdlog::details::flag_formatter>, true, true>::__uniq_ptr_impl<std::default_delete<spdlog::details::short_filename_formatter<spdlog::details::null_scoped_padder> > >(spdlog::details::flag_formatter*, std::default_delete<spdlog::details::short_filename_formatter<spdlog::details::null_scoped_padder> >&&)
FUNC 4925a 56 0 std::unique_ptr<spdlog::details::flag_formatter, std::default_delete<spdlog::details::flag_formatter> >::unique_ptr<spdlog::details::short_filename_formatter<spdlog::details::null_scoped_padder>, std::default_delete<spdlog::details::short_filename_formatter<spdlog::details::null_scoped_padder> >, void>(std::unique_ptr<spdlog::details::short_filename_formatter<spdlog::details::null_scoped_padder>, std::default_delete<spdlog::details::short_filename_formatter<spdlog::details::null_scoped_padder> > >&&)
FUNC 492b0 5c 0 std::__detail::_MakeUniq<spdlog::details::source_filename_formatter<spdlog::details::null_scoped_padder> >::__single_object std::make_unique<spdlog::details::source_filename_formatter<spdlog::details::null_scoped_padder>, spdlog::details::padding_info&>(spdlog::details::padding_info&)
FUNC 4930c 68 0 std::unique_ptr<spdlog::details::source_filename_formatter<spdlog::details::null_scoped_padder>, std::default_delete<spdlog::details::source_filename_formatter<spdlog::details::null_scoped_padder> > >::~unique_ptr()
FUNC 49374 32 0 std::__uniq_ptr_data<spdlog::details::flag_formatter, std::default_delete<spdlog::details::flag_formatter>, true, true>::__uniq_ptr_impl<std::default_delete<spdlog::details::source_filename_formatter<spdlog::details::null_scoped_padder> > >(spdlog::details::flag_formatter*, std::default_delete<spdlog::details::source_filename_formatter<spdlog::details::null_scoped_padder> >&&)
FUNC 493a6 56 0 std::unique_ptr<spdlog::details::flag_formatter, std::default_delete<spdlog::details::flag_formatter> >::unique_ptr<spdlog::details::source_filename_formatter<spdlog::details::null_scoped_padder>, std::default_delete<spdlog::details::source_filename_formatter<spdlog::details::null_scoped_padder> >, void>(std::unique_ptr<spdlog::details::source_filename_formatter<spdlog::details::null_scoped_padder>, std::default_delete<spdlog::details::source_filename_formatter<spdlog::details::null_scoped_padder> > >&&)
FUNC 493fc 5c 0 std::__detail::_MakeUniq<spdlog::details::source_linenum_formatter<spdlog::details::null_scoped_padder> >::__single_object std::make_unique<spdlog::details::source_linenum_formatter<spdlog::details::null_scoped_padder>, spdlog::details::padding_info&>(spdlog::details::padding_info&)
FUNC 49458 68 0 std::unique_ptr<spdlog::details::source_linenum_formatter<spdlog::details::null_scoped_padder>, std::default_delete<spdlog::details::source_linenum_formatter<spdlog::details::null_scoped_padder> > >::~unique_ptr()
FUNC 494c0 32 0 std::__uniq_ptr_data<spdlog::details::flag_formatter, std::default_delete<spdlog::details::flag_formatter>, true, true>::__uniq_ptr_impl<std::default_delete<spdlog::details::source_linenum_formatter<spdlog::details::null_scoped_padder> > >(spdlog::details::flag_formatter*, std::default_delete<spdlog::details::source_linenum_formatter<spdlog::details::null_scoped_padder> >&&)
FUNC 494f2 56 0 std::unique_ptr<spdlog::details::flag_formatter, std::default_delete<spdlog::details::flag_formatter> >::unique_ptr<spdlog::details::source_linenum_formatter<spdlog::details::null_scoped_padder>, std::default_delete<spdlog::details::source_linenum_formatter<spdlog::details::null_scoped_padder> >, void>(std::unique_ptr<spdlog::details::source_linenum_formatter<spdlog::details::null_scoped_padder>, std::default_delete<spdlog::details::source_linenum_formatter<spdlog::details::null_scoped_padder> > >&&)
FUNC 49548 5c 0 std::__detail::_MakeUniq<spdlog::details::source_funcname_formatter<spdlog::details::null_scoped_padder> >::__single_object std::make_unique<spdlog::details::source_funcname_formatter<spdlog::details::null_scoped_padder>, spdlog::details::padding_info&>(spdlog::details::padding_info&)
